###############################################################################
#                                                                             #
# IAR ELF Linker V6.50.5.4819/W32 for ARM               11/Apr/2017  17:31:11 #
# Copyright 2007-2013 IAR Systems AB.                                         #
#                                                                             #
#    Output file  =  D:\Tools\Sengled\Ember\EmberZNet5.3.0-GA\em35x\build\ICo #
#                    ntrolDimmableLamp\IControlDimmableLamp.out               #
#    Map file     =  D:\Tools\Sengled\Ember\EmberZNet5.3.0-GA\em35x\build\ICo #
#                    ntrolDimmableLamp\IControlDimmableLamp.map               #
#    Command line =  D:\Tools\Sengled\Ember\EmberZNet5.3.0-GA\em35x\build\ICo #
#                    ntrolDimmableLamp\IControlDimmableLamp_callbacks.o       #
#                    D:\Tools\Sengled\Ember\EmberZNet5.3.0-GA\em35x\build\ICo #
#                    ntrolDimmableLamp\IcontrolDimmableLampApp.o              #
#                    D:\Tools\Sengled\Ember\EmberZNet5.3.0-GA\em35x\build\ICo #
#                    ntrolDimmableLamp\adc.o D:\Tools\Sengled\Ember\EmberZNet #
#                    5.3.0-GA\em35x\build\IControlDimmableLamp\address-table- #
#                    cli.o D:\Tools\Sengled\Ember\EmberZNet5.3.0-GA\em35x\bui #
#                    ld\IControlDimmableLamp\address-table-management.o       #
#                    D:\Tools\Sengled\Ember\EmberZNet5.3.0-GA\em35x\build\ICo #
#                    ntrolDimmableLamp\address-table-soc.o                    #
#                    D:\Tools\Sengled\Ember\EmberZNet5.3.0-GA\em35x\build\ICo #
#                    ntrolDimmableLamp\af-event.o                             #
#                    D:\Tools\Sengled\Ember\EmberZNet5.3.0-GA\em35x\build\ICo #
#                    ntrolDimmableLamp\af-main-common.o                       #
#                    D:\Tools\Sengled\Ember\EmberZNet5.3.0-GA\em35x\build\ICo #
#                    ntrolDimmableLamp\af-main-soc.o                          #
#                    D:\Tools\Sengled\Ember\EmberZNet5.3.0-GA\em35x\build\ICo #
#                    ntrolDimmableLamp\af-node.o                              #
#                    D:\Tools\Sengled\Ember\EmberZNet5.3.0-GA\em35x\build\ICo #
#                    ntrolDimmableLamp\af-security-common.o                   #
#                    D:\Tools\Sengled\Ember\EmberZNet5.3.0-GA\em35x\build\ICo #
#                    ntrolDimmableLamp\af-trust-center.o                      #
#                    D:\Tools\Sengled\Ember\EmberZNet5.3.0-GA\em35x\build\ala #
#                    rm-stub-library-cortexm3-iar-em357-em3xx\alarm-stub-libr #
#                    ary.a D:\Tools\Sengled\Ember\EmberZNet5.3.0-GA\em35x\bui #
#                    ld\IControlDimmableLamp\attribute-size.o                 #
#                    D:\Tools\Sengled\Ember\EmberZNet5.3.0-GA\em35x\build\ICo #
#                    ntrolDimmableLamp\attribute-storage.o                    #
#                    D:\Tools\Sengled\Ember\EmberZNet5.3.0-GA\em35x\build\ICo #
#                    ntrolDimmableLamp\attribute-table.o                      #
#                    D:\Tools\Sengled\Ember\EmberZNet5.3.0-GA\em35x\build\ICo #
#                    ntrolDimmableLamp\basic.o D:\Tools\Sengled\Ember\EmberZN #
#                    et5.3.0-GA\em35x\build\binding-table-library-cortexm3-ia #
#                    r-em357-em3xx\binding-table-library.a                    #
#                    D:\Tools\Sengled\Ember\EmberZNet5.3.0-GA\em35x\build\ICo #
#                    ntrolDimmableLamp\bootloader-interface-app.o             #
#                    D:\Tools\Sengled\Ember\EmberZNet5.3.0-GA\em35x\build\ICo #
#                    ntrolDimmableLamp\bootloader-interface.o                 #
#                    D:\Tools\Sengled\Ember\EmberZNet5.3.0-GA\em35x\build\ICo #
#                    ntrolDimmableLamp\button.o D:\Tools\Sengled\Ember\EmberZ #
#                    Net5.3.0-GA\em35x\build\IControlDimmableLamp\buzzer.o    #
#                    D:\Tools\Sengled\Ember\EmberZNet5.3.0-GA\em35x\build\ICo #
#                    ntrolDimmableLamp\call-command-handler.o                 #
#                    D:\Tools\Sengled\Ember\EmberZNet5.3.0-GA\em35x\build\ICo #
#                    ntrolDimmableLamp\callback-stub.o                        #
#                    D:\Tools\Sengled\Ember\EmberZNet5.3.0-GA\em35x\build\ICo #
#                    ntrolDimmableLamp\callbacks.o                            #
#                    D:\Tools\Sengled\Ember\EmberZNet5.3.0-GA\em35x\build\cbk #
#                    e-163k1-stub-library-cortexm3-iar-em357-em3xx\cbke-163k1 #
#                    -stub-library.a D:\Tools\Sengled\Ember\EmberZNet5.3.0-GA #
#                    \em35x\build\cbke-283k1-stub-library-cortexm3-iar-em357- #
#                    em3xx\cbke-283k1-stub-library.a                          #
#                    D:\Tools\Sengled\Ember\EmberZNet5.3.0-GA\em35x\build\cbk #
#                    e-library-dsa-sign-stub-cortexm3-iar-em357-em3xx\cbke-li #
#                    brary-dsa-sign-stub.a D:\Tools\Sengled\Ember\EmberZNet5. #
#                    3.0-GA\em35x\build\cbke-library-dsa-verify-stub-cortexm3 #
#                    -iar-em357-em3xx\cbke-library-dsa-verify-stub.a          #
#                    D:\Tools\Sengled\Ember\EmberZNet5.3.0-GA\em35x\build\cbk #
#                    e-stub-library-cortexm3-iar-em357-em3xx\cbke-stub-librar #
#                    y.a D:\Tools\Sengled\Ember\EmberZNet5.3.0-GA\em35x\build #
#                    \IControlDimmableLamp\cli.o                              #
#                    D:\Tools\Sengled\Ember\EmberZNet5.3.0-GA\em35x\build\ICo #
#                    ntrolDimmableLamp\client-api.o                           #
#                    D:\Tools\Sengled\Ember\EmberZNet5.3.0-GA\em35x\build\ICo #
#                    ntrolDimmableLamp\command-interpreter2.o                 #
#                    D:\Tools\Sengled\Ember\EmberZNet5.3.0-GA\em35x\build\ICo #
#                    ntrolDimmableLamp\core-cli.o                             #
#                    D:\Tools\Sengled\Ember\EmberZNet5.3.0-GA\em35x\build\ICo #
#                    ntrolDimmableLamp\counters-cli.o                         #
#                    D:\Tools\Sengled\Ember\EmberZNet5.3.0-GA\em35x\build\ICo #
#                    ntrolDimmableLamp\counters-ota.o                         #
#                    D:\Tools\Sengled\Ember\EmberZNet5.3.0-GA\em35x\build\ICo #
#                    ntrolDimmableLamp\counters-soc.o                         #
#                    D:\Tools\Sengled\Ember\EmberZNet5.3.0-GA\em35x\build\ICo #
#                    ntrolDimmableLamp\crc.o D:\Tools\Sengled\Ember\EmberZNet #
#                    5.3.0-GA\em35x\build\IControlDimmableLamp\crypto-state.o #
#                     D:\Tools\Sengled\Ember\EmberZNet5.3.0-GA\em35x\build\IC #
#                    ontrolDimmableLamp\cstartup-iar-common.o                 #
#                    D:\Tools\Sengled\Ember\EmberZNet5.3.0-GA\em35x\build\ICo #
#                    ntrolDimmableLamp\diagnostic-server-soc.o                #
#                    D:\Tools\Sengled\Ember\EmberZNet5.3.0-GA\em35x\build\ICo #
#                    ntrolDimmableLamp\diagnostic.o                           #
#                    D:\Tools\Sengled\Ember\EmberZNet5.3.0-GA\em35x\build\ICo #
#                    ntrolDimmableLamp\eeprom-cli.o                           #
#                    D:\Tools\Sengled\Ember\EmberZNet5.3.0-GA\em35x\build\ICo #
#                    ntrolDimmableLamp\eeprom.o D:\Tools\Sengled\Ember\EmberZ #
#                    Net5.3.0-GA\em35x\build\IControlDimmableLamp\em_usbd.o   #
#                    D:\Tools\Sengled\Ember\EmberZNet5.3.0-GA\em35x\build\ICo #
#                    ntrolDimmableLamp\em_usbdch9.o                           #
#                    D:\Tools\Sengled\Ember\EmberZNet5.3.0-GA\em35x\build\ICo #
#                    ntrolDimmableLamp\em_usbdep.o                            #
#                    D:\Tools\Sengled\Ember\EmberZNet5.3.0-GA\em35x\build\ICo #
#                    ntrolDimmableLamp\em_usbhal.o                            #
#                    D:\Tools\Sengled\Ember\EmberZNet5.3.0-GA\em35x\build\ICo #
#                    ntrolDimmableLamp\em_usbint.o                            #
#                    D:\Tools\Sengled\Ember\EmberZNet5.3.0-GA\em35x\build\ICo #
#                    ntrolDimmableLamp\ember-configuration.o                  #
#                    D:\Tools\Sengled\Ember\EmberZNet5.3.0-GA\em35x\build\end #
#                    -device-bind-stub-library-cortexm3-iar-em357-em3xx\end-d #
#                    evice-bind-stub-library.a D:\Tools\Sengled\Ember\EmberZN #
#                    et5.3.0-GA\em35x\build\IControlDimmableLamp\end-device-m #
#                    ove.o D:\Tools\Sengled\Ember\EmberZNet5.3.0-GA\em35x\bui #
#                    ld\IControlDimmableLamp\end-device-support-cli.o         #
#                    D:\Tools\Sengled\Ember\EmberZNet5.3.0-GA\em35x\build\ICo #
#                    ntrolDimmableLamp\end-device-support.o                   #
#                    D:\Tools\Sengled\Ember\EmberZNet5.3.0-GA\em35x\build\ICo #
#                    ntrolDimmableLamp\endian.o D:\Tools\Sengled\Ember\EmberZ #
#                    Net5.3.0-GA\em35x\build\IControlDimmableLamp\ez-mode.o   #
#                    D:\Tools\Sengled\Ember\EmberZNet5.3.0-GA\em35x\build\ICo #
#                    ntrolDimmableLamp\faults.o D:\Tools\Sengled\Ember\EmberZ #
#                    Net5.3.0-GA\em35x\build\IControlDimmableLamp\form-and-jo #
#                    in-node-adapter.o D:\Tools\Sengled\Ember\EmberZNet5.3.0- #
#                    GA\em35x\build\IControlDimmableLamp\form-and-join.o      #
#                    D:\Tools\Sengled\Ember\EmberZNet5.3.0-GA\em35x\build\ICo #
#                    ntrolDimmableLamp\groups-server-cli.o                    #
#                    D:\Tools\Sengled\Ember\EmberZNet5.3.0-GA\em35x\build\ICo #
#                    ntrolDimmableLamp\groups-server.o                        #
#                    D:\Tools\Sengled\Ember\EmberZNet5.3.0-GA\em35x\build\hal #
#                    -library-cortexm3-iar-em357-em3xx\hal-library.a          #
#                    D:\Tools\Sengled\Ember\EmberZNet5.3.0-GA\em35x\build\ICo #
#                    ntrolDimmableLamp\identify-cli.o                         #
#                    D:\Tools\Sengled\Ember\EmberZNet5.3.0-GA\em35x\build\ICo #
#                    ntrolDimmableLamp\identify.o                             #
#                    D:\Tools\Sengled\Ember\EmberZNet5.3.0-GA\em35x\build\ICo #
#                    ntrolDimmableLamp\idle-sleep-cli.o                       #
#                    D:\Tools\Sengled\Ember\EmberZNet5.3.0-GA\em35x\build\ICo #
#                    ntrolDimmableLamp\idle-sleep-soc.o                       #
#                    D:\Tools\Sengled\Ember\EmberZNet5.3.0-GA\em35x\build\ICo #
#                    ntrolDimmableLamp\idle-sleep.o                           #
#                    D:\Tools\Sengled\Ember\EmberZNet5.3.0-GA\em35x\build\ins #
#                    tall-code-library-stub-cortexm3-iar-em357-em3xx\install- #
#                    code-library-stub.a D:\Tools\Sengled\Ember\EmberZNet5.3. #
#                    0-GA\em35x\build\IControlDimmableLamp\isr-stubs.o        #
#                    D:\Tools\Sengled\Ember\EmberZNet5.3.0-GA\em35x\build\ICo #
#                    ntrolDimmableLamp\led.o D:\Tools\Sengled\Ember\EmberZNet #
#                    5.3.0-GA\em35x\build\IControlDimmableLamp\level-control. #
#                    o D:\Tools\Sengled\Ember\EmberZNet5.3.0-GA\em35x\build\I #
#                    ControlDimmableLamp\library.o                            #
#                    D:\Tools\Sengled\Ember\EmberZNet5.3.0-GA\em35x\build\ICo #
#                    ntrolDimmableLamp\mem-util.o                             #
#                    D:\Tools\Sengled\Ember\EmberZNet5.3.0-GA\em35x\build\ICo #
#                    ntrolDimmableLamp\message.o                              #
#                    D:\Tools\Sengled\Ember\EmberZNet5.3.0-GA\em35x\build\ICo #
#                    ntrolDimmableLamp\mfg-token.o                            #
#                    D:\Tools\Sengled\Ember\EmberZNet5.3.0-GA\em35x\build\ICo #
#                    ntrolDimmableLamp\micro-common.o                         #
#                    D:\Tools\Sengled\Ember\EmberZNet5.3.0-GA\em35x\build\ICo #
#                    ntrolDimmableLamp\micro.o D:\Tools\Sengled\Ember\EmberZN #
#                    et5.3.0-GA\em35x\build\IControlDimmableLamp\mpu.o        #
#                    D:\Tools\Sengled\Ember\EmberZNet5.3.0-GA\em35x\build\mul #
#                    ti-network-stub-library-cortexm3-iar-em357-em3xx\multi-n #
#                    etwork-stub-library.a D:\Tools\Sengled\Ember\EmberZNet5. #
#                    3.0-GA\em35x\build\IControlDimmableLamp\multi-network.o  #
#                    D:\Tools\Sengled\Ember\EmberZNet5.3.0-GA\em35x\build\ICo #
#                    ntrolDimmableLamp\network-cli.o                          #
#                    D:\Tools\Sengled\Ember\EmberZNet5.3.0-GA\em35x\build\ICo #
#                    ntrolDimmableLamp\network-find.o                         #
#                    D:\Tools\Sengled\Ember\EmberZNet5.3.0-GA\em35x\build\ICo #
#                    ntrolDimmableLamp\on-off.o D:\Tools\Sengled\Ember\EmberZ #
#                    Net5.3.0-GA\em35x\build\IControlDimmableLamp\option-cli. #
#                    o D:\Tools\Sengled\Ember\EmberZNet5.3.0-GA\em35x\build\I #
#                    ControlDimmableLamp\ota-bootload-cli.o                   #
#                    D:\Tools\Sengled\Ember\EmberZNet5.3.0-GA\em35x\build\ICo #
#                    ntrolDimmableLamp\ota-bootload-soc.o                     #
#                    D:\Tools\Sengled\Ember\EmberZNet5.3.0-GA\em35x\build\ICo #
#                    ntrolDimmableLamp\ota-client-cli.o                       #
#                    D:\Tools\Sengled\Ember\EmberZNet5.3.0-GA\em35x\build\ICo #
#                    ntrolDimmableLamp\ota-client-page-request.o              #
#                    D:\Tools\Sengled\Ember\EmberZNet5.3.0-GA\em35x\build\ICo #
#                    ntrolDimmableLamp\ota-client-policy.o                    #
#                    D:\Tools\Sengled\Ember\EmberZNet5.3.0-GA\em35x\build\ICo #
#                    ntrolDimmableLamp\ota-client-signature-verify.o          #
#                    D:\Tools\Sengled\Ember\EmberZNet5.3.0-GA\em35x\build\ICo #
#                    ntrolDimmableLamp\ota-client.o                           #
#                    D:\Tools\Sengled\Ember\EmberZNet5.3.0-GA\em35x\build\ICo #
#                    ntrolDimmableLamp\ota-common.o                           #
#                    D:\Tools\Sengled\Ember\EmberZNet5.3.0-GA\em35x\build\ICo #
#                    ntrolDimmableLamp\ota-storage-common-cli.o               #
#                    D:\Tools\Sengled\Ember\EmberZNet5.3.0-GA\em35x\build\ICo #
#                    ntrolDimmableLamp\ota-storage-common.o                   #
#                    D:\Tools\Sengled\Ember\EmberZNet5.3.0-GA\em35x\build\ICo #
#                    ntrolDimmableLamp\ota-storage-eeprom-page-erase.o        #
#                    D:\Tools\Sengled\Ember\EmberZNet5.3.0-GA\em35x\build\ICo #
#                    ntrolDimmableLamp\ota-storage-eeprom-read-modify-write.o #
#                     D:\Tools\Sengled\Ember\EmberZNet5.3.0-GA\em35x\build\IC #
#                    ontrolDimmableLamp\ota-storage-eeprom.o                  #
#                    D:\Tools\Sengled\Ember\EmberZNet5.3.0-GA\em35x\build\ICo #
#                    ntrolDimmableLamp\ota-storage-simple-simulation.o        #
#                    D:\Tools\Sengled\Ember\EmberZNet5.3.0-GA\em35x\build\ICo #
#                    ntrolDimmableLamp\ota-storage-simple.o                   #
#                    D:\Tools\Sengled\Ember\EmberZNet5.3.0-GA\em35x\build\pac #
#                    ket-validate-library-cortexm3-iar-em357-em3xx-debug\pack #
#                    et-validate-library.a D:\Tools\Sengled\Ember\EmberZNet5. #
#                    3.0-GA\em35x\build\IControlDimmableLamp\plugin-cli.o     #
#                    D:\Tools\Sengled\Ember\EmberZNet5.3.0-GA\em35x\build\ICo #
#                    ntrolDimmableLamp\polling-common.o                       #
#                    D:\Tools\Sengled\Ember\EmberZNet5.3.0-GA\em35x\build\ICo #
#                    ntrolDimmableLamp\polling-soc.o                          #
#                    D:\Tools\Sengled\Ember\EmberZNet5.3.0-GA\em35x\build\ICo #
#                    ntrolDimmableLamp\print-formatter.o                      #
#                    D:\Tools\Sengled\Ember\EmberZNet5.3.0-GA\em35x\build\ICo #
#                    ntrolDimmableLamp\print.o D:\Tools\Sengled\Ember\EmberZN #
#                    et5.3.0-GA\em35x\build\IControlDimmableLamp\process-clus #
#                    ter-message.o D:\Tools\Sengled\Ember\EmberZNet5.3.0-GA\e #
#                    m35x\build\IControlDimmableLamp\process-global-message.o #
#                     D:\Tools\Sengled\Ember\EmberZNet5.3.0-GA\em35x\build\IC #
#                    ontrolDimmableLamp\pwm-control.o                         #
#                    D:\Tools\Sengled\Ember\EmberZNet5.3.0-GA\em35x\build\ICo #
#                    ntrolDimmableLamp\random.o D:\Tools\Sengled\Ember\EmberZ #
#                    Net5.3.0-GA\em35x\build\IControlDimmableLamp\reporting-c #
#                    li.o D:\Tools\Sengled\Ember\EmberZNet5.3.0-GA\em35x\buil #
#                    d\IControlDimmableLamp\reporting.o                       #
#                    D:\Tools\Sengled\Ember\EmberZNet5.3.0-GA\em35x\build\rf4 #
#                    ce-stack-stub-library-cortexm3-iar-em357-em3xx\rf4ce-sta #
#                    ck-stub-library.a D:\Tools\Sengled\Ember\EmberZNet5.3.0- #
#                    GA\em35x\build\IControlDimmableLamp\scenes-cli.o         #
#                    D:\Tools\Sengled\Ember\EmberZNet5.3.0-GA\em35x\build\ICo #
#                    ntrolDimmableLamp\scenes.o D:\Tools\Sengled\Ember\EmberZ #
#                    Net5.3.0-GA\em35x\build\IControlDimmableLamp\security-ad #
#                    dress-cache.o D:\Tools\Sengled\Ember\EmberZNet5.3.0-GA\e #
#                    m35x\build\IControlDimmableLamp\security-cli.o           #
#                    D:\Tools\Sengled\Ember\EmberZNet5.3.0-GA\em35x\build\sec #
#                    urity-library-core-cortexm3-iar-em357-em3xx\security-lib #
#                    rary-core.a D:\Tools\Sengled\Ember\EmberZNet5.3.0-GA\em3 #
#                    5x\build\security-library-link-keys-cortexm3-iar-em357-e #
#                    m3xx\security-library-link-keys.a                        #
#                    D:\Tools\Sengled\Ember\EmberZNet5.3.0-GA\em35x\build\ICo #
#                    ntrolDimmableLamp\serial.o D:\Tools\Sengled\Ember\EmberZ #
#                    Net5.3.0-GA\em35x\build\IControlDimmableLamp\service-dis #
#                    covery-common.o D:\Tools\Sengled\Ember\EmberZNet5.3.0-GA #
#                    \em35x\build\IControlDimmableLamp\service-discovery-soc. #
#                    o D:\Tools\Sengled\Ember\EmberZNet5.3.0-GA\em35x\build\I #
#                    ControlDimmableLamp\sim-eeprom.o                         #
#                    D:\Tools\Sengled\Ember\EmberZNet5.3.0-GA\em35x\build\ICo #
#                    ntrolDimmableLamp\simple-metering-server-cli.o           #
#                    D:\Tools\Sengled\Ember\EmberZNet5.3.0-GA\em35x\build\ICo #
#                    ntrolDimmableLamp\simple-metering-server.o               #
#                    D:\Tools\Sengled\Ember\EmberZNet5.3.0-GA\em35x\build\ICo #
#                    ntrolDimmableLamp\simple-metering-test.o                 #
#                    D:\Tools\Sengled\Ember\EmberZNet5.3.0-GA\em35x\build\ICo #
#                    ntrolDimmableLamp\sleep.o D:\Tools\Sengled\Ember\EmberZN #
#                    et5.3.0-GA\em35x\build\IControlDimmableLamp\stack-handle #
#                    r-stub.o D:\Tools\Sengled\Ember\EmberZNet5.3.0-GA\em35x\ #
#                    build\IControlDimmableLamp\token-def.o                   #
#                    D:\Tools\Sengled\Ember\EmberZNet5.3.0-GA\em35x\build\ICo #
#                    ntrolDimmableLamp\token.o D:\Tools\Sengled\Ember\EmberZN #
#                    et5.3.0-GA\em35x\build\IControlDimmableLamp\uart.o       #
#                    D:\Tools\Sengled\Ember\EmberZNet5.3.0-GA\em35x\build\ICo #
#                    ntrolDimmableLamp\util.o D:\Tools\Sengled\Ember\EmberZNe #
#                    t5.3.0-GA\em35x\build\IControlDimmableLamp\zcl-cli.o     #
#                    D:\Tools\Sengled\Ember\EmberZNet5.3.0-GA\em35x\build\ICo #
#                    ntrolDimmableLamp\zdo-cli.o                              #
#                    D:\Tools\Sengled\Ember\EmberZNet5.3.0-GA\em35x\build\ICo #
#                    ntrolDimmableLamp\zigbee-device-common.o                 #
#                    D:\Tools\Sengled\Ember\EmberZNet5.3.0-GA\em35x\build\ICo #
#                    ntrolDimmableLamp\zigbee-device-library.o                #
#                    D:\Tools\Sengled\Ember\EmberZNet5.3.0-GA\em35x\build\zig #
#                    bee-pro-leaf-stack-cortexm3-iar-em357-em3xx-debug\zigbee #
#                    -pro-leaf-stack.a D:\Tools\Sengled\Ember\EmberZNet5.3.0- #
#                    GA\em35x\build\zll-stub-library-cortexm3-iar-em357-em3xx #
#                    \zll-stub-library.a --redirect _Printf=_PrintfFull       #
#                    --redirect _Scanf=_ScanfFull -o                          #
#                    D:\Tools\Sengled\Ember\EmberZNet5.3.0-GA\em35x\build\ICo #
#                    ntrolDimmableLamp\IControlDimmableLamp.out --config_def  #
#                    APP_BTL=1 --map D:\Tools\Sengled\Ember\EmberZNet5.3.0-GA #
#                    \em35x\build\IControlDimmableLamp\IControlDimmableLamp.m #
#                    ap --log initialization,modules,sections,veneers         #
#                    --log_file D:\Tools\Sengled\Ember\EmberZNet5.3.0-GA\em35 #
#                    x\build\IControlDimmableLamp\IControlDimmableLamp.log    #
#                    --config D:\Tools\Sengled\Ember\EmberZNet5.3.0-GA\em35x\ #
#                    app\builder\IControlDimmableLamp/../../../hal/micro/cort #
#                    exm3/em35x/em357/iar-cfg.icf --diag_suppress Lp012       #
#                    --entry halEntryPoint --vfe                              #
#                                                                             #
#                                                                             #
###############################################################################

*******************************************************************************
*** MESSAGES
***

Error[Li006]: duplicate definitions for "ActivePowerDelayEventControl"; in "D:\
          Tools\Sengled\Ember\EmberZNet5.3.0-GA\em35x\build\IControlDimmableLam
          p\IControlDimmableLamp_callbacks.o", and "D:\Tools\Sengled\Ember\Embe
          rZNet5.3.0-GA\em35x\build\IControlDimmableLamp\IcontrolDimmableLampAp
          p.o"
Error[Li006]: duplicate definitions for "ActivePowerDelayEventFunction"; in "D:
          \Tools\Sengled\Ember\EmberZNet5.3.0-GA\em35x\build\IControlDimmableLa
          mp\IControlDimmableLamp_callbacks.o", and "D:\Tools\Sengled\Ember\Emb
          erZNet5.3.0-GA\em35x\build\IControlDimmableLamp\IcontrolDimmableLampA
          pp.o"
Error[Li006]: duplicate definitions for "JoinTheNetworkEventControl"; in "D:\To
          ols\Sengled\Ember\EmberZNet5.3.0-GA\em35x\build\IControlDimmableLamp\
          IControlDimmableLamp_callbacks.o", and "D:\Tools\Sengled\Ember\EmberZ
          Net5.3.0-GA\em35x\build\IControlDimmableLamp\IcontrolDimmableLampApp.
          o"
Error[Li006]: duplicate definitions for "JoinTheNetworkEventFunction"; in "D:\T
          ools\Sengled\Ember\EmberZNet5.3.0-GA\em35x\build\IControlDimmableLamp
          \IControlDimmableLamp_callbacks.o", and "D:\Tools\Sengled\Ember\Ember
          ZNet5.3.0-GA\em35x\build\IControlDimmableLamp\IcontrolDimmableLampApp
          .o"
Error[Li006]: duplicate definitions for "PowerConsumptionEventControl"; in "D:\
          Tools\Sengled\Ember\EmberZNet5.3.0-GA\em35x\build\IControlDimmableLam
          p\IControlDimmableLamp_callbacks.o", and "D:\Tools\Sengled\Ember\Embe
          rZNet5.3.0-GA\em35x\build\IControlDimmableLamp\IcontrolDimmableLampAp
          p.o"
Error[Li006]: duplicate definitions for "PowerConsumptionEventFunction"; in "D:
          \Tools\Sengled\Ember\EmberZNet5.3.0-GA\em35x\build\IControlDimmableLa
          mp\IControlDimmableLamp_callbacks.o", and "D:\Tools\Sengled\Ember\Emb
          erZNet5.3.0-GA\em35x\build\IControlDimmableLamp\IcontrolDimmableLampA
          pp.o"
Error[Li006]: duplicate definitions for "WritePowerAttributeEventControl"; in "
          D:\Tools\Sengled\Ember\EmberZNet5.3.0-GA\em35x\build\IControlDimmable
          Lamp\IControlDimmableLamp_callbacks.o", and "D:\Tools\Sengled\Ember\E
          mberZNet5.3.0-GA\em35x\build\IControlDimmableLamp\IcontrolDimmableLam
          pApp.o"
Error[Li006]: duplicate definitions for "WritePowerAttributeEventFunction"; in 
          "D:\Tools\Sengled\Ember\EmberZNet5.3.0-GA\em35x\build\IControlDimmabl
          eLamp\IControlDimmableLamp_callbacks.o", and "D:\Tools\Sengled\Ember\
          EmberZNet5.3.0-GA\em35x\build\IControlDimmableLamp\IcontrolDimmableLa
          mpApp.o"
Error[Li006]: duplicate definitions for "buttonEventControl"; in "D:\Tools\Seng
          led\Ember\EmberZNet5.3.0-GA\em35x\build\IControlDimmableLamp\IControl
          DimmableLamp_callbacks.o", and "D:\Tools\Sengled\Ember\EmberZNet5.3.0
          -GA\em35x\build\IControlDimmableLamp\IcontrolDimmableLampApp.o"
Error[Li006]: duplicate definitions for "buttonEventHandler"; in "D:\Tools\Seng
          led\Ember\EmberZNet5.3.0-GA\em35x\build\IControlDimmableLamp\IControl
          DimmableLamp_callbacks.o", and "D:\Tools\Sengled\Ember\EmberZNet5.3.0
          -GA\em35x\build\IControlDimmableLamp\IcontrolDimmableLampApp.o"
Error[Li006]: duplicate definitions for
          "emberAfPluginBasicResetToFactoryDefaultsCallback"; in "D:\Tools\Seng
          led\Ember\EmberZNet5.3.0-GA\em35x\build\IControlDimmableLamp\IControl
          DimmableLamp_callbacks.o", and "D:\Tools\Sengled\Ember\EmberZNet5.3.0
          -GA\em35x\build\IControlDimmableLamp\IcontrolDimmableLampApp.o"
Error[Li006]: duplicate definitions for
          "emberAfPluginIdentifyFeedbackProvideFeedbackEventControl"; in "D:\To
          ols\Sengled\Ember\EmberZNet5.3.0-GA\em35x\build\IControlDimmableLamp\
          IControlDimmableLamp_callbacks.o", and "D:\Tools\Sengled\Ember\EmberZ
          Net5.3.0-GA\em35x\build\IControlDimmableLamp\IcontrolDimmableLampApp.
          o"
Error[Li006]: duplicate definitions for
          "emberAfPluginIdentifyFeedbackProvideFeedbackEventHandler"; in "D:\To
          ols\Sengled\Ember\EmberZNet5.3.0-GA\em35x\build\IControlDimmableLamp\
          IControlDimmableLamp_callbacks.o", and "D:\Tools\Sengled\Ember\EmberZ
          Net5.3.0-GA\em35x\build\IControlDimmableLamp\IcontrolDimmableLampApp.
          o"
Error[Li006]: duplicate definitions for "emberAfPreMessageReceivedCallback"; in "D:\Tools\Sengled\Ember\EmberZNet5.3.0-GA\em35x\build\IControlDimmableLamp\IControlDimmableLamp_callbacks.o"
          , and "D:\Tools\Sengled\Ember\EmberZNet5.3.0-GA\em35x\build\IControlD
          immableLamp\IcontrolDimmableLampApp.o"
Error[Li005]: no definition for "sengledAfMainInit" [referenced from D:\Tools\S
          engled\Ember\EmberZNet5.3.0-GA\em35x\build\IControlDimmableLamp\af-ma
          in-soc.o]


*******************************************************************************
*** RUNTIME MODEL ATTRIBUTES
***

CppFlavor       = *
__SystemLibrary = DLib


*******************************************************************************
*** PLACEMENT SUMMARY
***

"BAT": place at 0x08000000 { section BAT };
"HEADERS":
       place at start of [0x08002000-0x080020ff] { block HEADER_block };
"APP ro":
       place at start of [0x08002100-0x0802ffff] { block APPRO_block };
"NVM&SIMEE":
       place at end of [0x08002100-0x0802ffff] {
          zi section NVM, zi section SIMEE, zi section INTERNAL_STORAGE };
"FAT": place at 0x08040000 { section FAT };
"DEBUGCHAN":
       place at start of [0x20002ff0-0x20002fff] { rw section DEBUG_CHANNEL };
"APP rw":
       place at end of [0x20000000-0x20002fef] { block APPRW_block };
"Heap":
       place at start of [0x20000000-0x20002fef] { overlay EMHEAP_overlay };
"Guard":
       place in [from 0x20000000 to 0x20002fef] { rw section GUARD_REGION };

  Section                 Kind        Address     Size  Object
  -------                 ----        -------     ----  ------
"BAT":                                            0x54
  BAT                     uninit   0x08000000     0x54  cstartup-iar-common.o [1]
                                 - 0x08000054     0x54

"HEADERS":                                        0xac
  HEADER_block                     0x08002000     0xac  <Block>
    AAT                   const    0x08002000     0xac  cstartup-iar-common.o [1]
                                 - 0x080020ac     0xac

"APP ro":                                      0x24254
  APPRO_block                      0x08002100  0x24254  <Block>
    .intvec               const    0x08002100     0x90  cstartup-iar-common.o [1]
    .text                          0x08002190  0x1df98  <Block>
      .text               ro code  0x08002190    0x718  IcontrolDimmableLampApp.o [1]
      .text               ro code  0x080028a8     0xc4  pwm-control.o [1]
      .text               ro code  0x0800296c    0x4fc  attribute-table.o [1]
      .text               ro code  0x08002e68    0x100  system-timer.o [12]
      .text               ro code  0x08002f68     0xe0  micro-common.o [1]
      .text               ro code  0x08003048    0x258  event-control.o [20]
      .text               ro code  0x080032a0    0xce0  attribute-storage.o [1]
      .text               ro code  0x08003f80    0x140  print.o [1]
      .text               ro code  0x080040c0    0x490  af-main-soc.o [1]
      .text               ro code  0x08004550    0x2a4  adc.o [1]
      .text               ro code  0x080047f4    0x274  micro.o [1]
      .text               ro code  0x08004a68      0xc  spmr.o [12]
      .text               ro code  0x08004a74      0x6  spmr.o [12]
      .text               ro code  0x08004a7a      0x2  identify-cli.o [1]
      .text               ro code  0x08004a7c    0xb4c  diagnostic.o [1]
      .text               ro code  0x080055c8     0x92  callback-stub.o [1]
      .text               ro code  0x0800565c    0x120  message.o [1]
      .text               ro code  0x0800577c     0x4c  attribute-size.o [1]
      .text               ro code  0x080057c8     0xd2  mem-util.o [1]
      .text               ro code  0x0800589c    0x6b8  util.o [1]
      .text               ro code  0x08005f54    0x830  reporting.o [1]
      .text               ro code  0x08006784      0x8  spmr.o [12]
      .text               ro code  0x0800678c    0x660  sleep.o [1]
      .text               ro code  0x08006dec    0x454  clocks.o [12]
      .text               ro code  0x08007240    0x1f0  micro-common-internal.o [12]
      .text               ro code  0x08007430      0xe  spmr.o [12]
      .text               ro code  0x08007440     0x64  multi-network.o [1]
      .text               ro code  0x080074a4    0x254  af-event.o [1]
      .text               ro code  0x080076f8    0x208  ember-multi-network-stub.o [14]
      .text               ro code  0x08007900    0x158  token.o [1]
      .text               ro code  0x08007a58    0x478  serial.o [1]
      .text               ro code  0x08007ed0     0x94  cstartup-iar-common.o [1]
      .text               ro code  0x08007f64    0x45c  zigbee-stack.o [20]
      .text               ro code  0x080083c0    0x684  af-main-common.o [1]
      .text               ro code  0x08008a44     0x10  security-address-cache.o [1]
      .text               ro code  0x08008a54    0x7b4  command-interpreter2.o [1]
      .text               ro code  0x08009208    0x5b4  analogue.o [20]
      .text               ro code  0x080097bc     0xf4  mfg-token.o [1]
      .text               ro code  0x080098b0    0x1d8  ember-stack-common.o [20]
      .text               ro code  0x08009a88    0x928  application-support.o [20]
      .text               ro code  0x0800a3b0     0xe4  zigbee-dispatch.o [20]
      .text               ro code  0x0800a494    0x400  address-table.o [20]
      .text               ro code  0x0800a894    0x298  zigbee-device-library.o [1]
      .text               ro code  0x0800ab2c    0x4b0  binding-table.o [4]
      .text               ro code  0x0800afdc    0x6bc  packet-buffer.o [20]
      .text               ro code  0x0800b698   0x15b4  association.o [20]
      .text               ro code  0x0800cc4c     0x76  ABImemcpy.o [17]
      .text               ro code  0x0800ccc4    0x302  form-and-join.o [1]
      .text               ro code  0x0800cfc8    0x2ac  uart.o [1]
      .text               ro code  0x0800d274    0x138  button.o [1]
      .text               ro code  0x0800d3ac    0x19c  micro-internal.o [12]
      .text               ro code  0x0800d548    0x5ac  phy.o [20]
      .text               ro code  0x0800daf4    0x3f4  debug.o [20]
      .text               ro code  0x0800dee8     0x66  ABImemset.o [17]
      .text               ro code  0x0800df50     0x76  polling-soc.o [1]
      .text               ro code  0x0800dfc8     0x48  idle-sleep-soc.o [1]
      .text               ro code  0x0800e010    0x1f4  client-api.o [1]
      .text               ro code  0x0800e204     0x8a  address-table-soc.o [1]
      .text               ro code  0x0800e290    0x15c  counters-soc.o [1]
      .text               ro code  0x0800e3ec    0x150  end-device-support.o [1]
      .text               ro code  0x0800e53c    0x158  network-find.o [1]
      .text               ro code  0x0800e694     0x10  crypto-state.o [1]
      .text               ro code  0x0800e6a4    0x3fc  groups-server.o [1]
      .text               ro code  0x0800eaa0     0x42  process-cluster-message.o [1]
      .text               ro code  0x0800eae4    0x456  process-global-message.o [1]
      .text               ro code  0x0800ef3c      0x4  spmr.o [12]
      .text               ro code  0x0800ef40     0x74  mpu.o [1]
      .text               ro code  0x0800efb4      0x4  spmr.o [12]
      .text               ro code  0x0800efb8      0xe  spmr.o [12]
      .text               ro code  0x0800efc8      0x8  context-switch.o [12]
      .text               ro code  0x0800efd0    0x11c  caladc.o [12]
      .text               ro code  0x0800f0ec    0x89c  phy-common.o [20]
      .text               ro code  0x0800f988     0x48  random.o [1]
      .text               ro code  0x0800f9d0    0x450  mac.o [20]
      .text               ro code  0x0800fe20     0x50  rf4ce-stack-stubs.o [16]
      .text               ro code  0x0800fe70    0x410  mac-arbiter.o [20]
      .text               ro code  0x08010280     0xb4  ember-configuration.o [1]
      .text               ro code  0x08010334    0x1b4  sim-eeprom.o [1]
      .text               ro code  0x080104e8    0xaf0  sim-eeprom-internal.o [12]
      .text               ro code  0x08010fd8    0x290  debug-jtag.o [20]
      .text               ro code  0x08011268     0x80  ember-library.o [20]
      .text               ro code  0x080112e8     0x12  phy-util.o [20]
      .text               ro code  0x080112fc   0x1504  network.o [20]
      .text               ro code  0x08012800      0x6  cbke-crypto-engine-163k1-stub.o [5]
      .text               ro code  0x08012806      0x6  cbke-crypto-engine-283k1-stub.o [6]
      .text               ro code  0x0801280c     0x32  zll-stubs.o [21]
      .text               ro code  0x08012840    0x150  broadcast.o [20]
      .text               ro code  0x08012990     0xd4  leaf-routing-stub.o [20]
      .text               ro code  0x08012a64    0x2c8  mac-receive.o [20]
      .text               ro code  0x08012d2c    0x17c  child-aging.o [20]
      .text               ro code  0x08012ea8     0x1c  mac-indirect-stub.o [20]
      .text               ro code  0x08012ec4    0x370  zdo-channel.o [20]
      .text               ro code  0x08013234    0x93c  aps-retry.o [20]
      .text               ro code  0x08013b70      0xe  cbke-crypto-engine-stub.o [9]
      .text               ro code  0x08013b80    0x28a  retry.o [20]
      .text               ro code  0x08013e0a     0x36  child-stub.o [20]
      .text               ro code  0x08013e40    0x640  neighbor.o [20]
      .text               ro code  0x08014480    0x500  aps-keys.o [18]
      .text               ro code  0x08014980    0x1f4  zigbee-neighbor.o [20]
      .text               ro code  0x08014b74     0x12  IControlDimmableLamp_callbacks.o [1]
      .text               ro code  0x08014b88    0x2d6  service-discovery-common.o [1]
      .text               ro code  0x08014e60     0x98  af-security-common.o [1]
      .text               ro code  0x08014ef8    0xca8  aps-security.o [18]
      .text               ro code  0x08015ba0    0x180  token-cache.o [20]
      .text               ro code  0x08015d20     0xd8  end-device-move.o [1]
      .text               ro code  0x08015df8    0xc98  ota-client.o [1]
      .text               ro code  0x08016a90     0x58  af-trust-center.o [1]
      .text               ro code  0x08016ae8     0x7c  af-node.o [1]
      .text               ro code  0x08016b64    0x108  core-cli.o [1]
      .text               ro code  0x08016c6c     0xec  analogue-cell-bias.o [20]
      .text               ro code  0x08016d58     0x50  analogue-filter.o [20]
      .text               ro code  0x08016da8     0xd0  analogue-vco.o [20]
      .text               ro code  0x08016e78    0x268  analogue-mod-dac.o [20]
      .text               ro code  0x080170e0    0x1aa  analogue-lna.o [20]
      .text               ro code  0x0801728c    0x120  flash.o [12]
      .text               ro code  0x080173ac    0x344  management.o [20]
      .text               ro code  0x080176f0      0x4  cbke-crypto-engine-dsa-sign-stub.o [7]
      .text               ro code  0x080176f4    0x580  zigbee-packet-header.o [20]
      .text               ro code  0x08017c74    0x24c  packet-header.o [20]
      .text               ro code  0x08017ec0    0x314  aps-encryption.o [18]
      .text               ro code  0x080181d4    0x398  packet-validate.o [15]
      .text               ro code  0x0801856c    0x62c  zigbee-device-util.o [20]
      .text               ro code  0x08018b98      0xa  alarm-stub.o [3]
      .text               ro code  0x08018ba4    0x106  zigbee-device-common.o [1]
      .text               ro code  0x08018caa      0x8  high-security-stub.o [18]
      .text               ro code  0x08018cb4    0x3a8  leave.o [20]
      .text               ro code  0x0801905c    0x2ec  random-id.o [20]
      .text               ro code  0x08019348    0x400  scan.o [20]
      .text               ro code  0x08019748     0x40  child-table.o [20]
      .text               ro code  0x08019788    0x370  command.o [20]
      .text               ro code  0x08019af8    0x488  trust-center-util.o [18]
      .text               ro code  0x08019f80     0x68  form-and-join-node-adapter.o [1]
      .text               ro code  0x08019fe8    0x1cc  mac-em250.o [20]
      .text               ro code  0x0801a1b4     0xae  aes.o [20]
      .text               ro code  0x0801a262      0x8  abs.o [10]
      .text               ro code  0x0801a26c     0x70  polling-common.o [1]
      .text               ro code  0x0801a2dc     0x90  idle-sleep.o [1]
      .text               ro code  0x0801a36c      0x6  ABImemclr4.o [17]
      .text               ro code  0x0801a374    0x8b4  scenes.o [1]
      .text               ro code  0x0801ac28    0x4a4  call-command-handler.o [1]
      .text               ro code  0x0801b0cc     0x18  eui64.o [20]
      .text               ro code  0x0801b0e4     0x5c  symbol-timer.o [20]
      .text               ro code  0x0801b140    0x288  jit.o [20]
      .text               ro code  0x0801b3c8     0x24  crc.o [1]
      .text               ro code  0x0801b3ec     0x64  unicast-table.o [20]
      .text               ro code  0x0801b450    0x598  crypto.o [20]
      .text               ro code  0x0801b9e8     0x44  byte-utilities.o [20]
      .text               ro code  0x0801ba2c     0x5e  led.o [1]
      .text               ro code  0x0801ba8c    0x330  mac-header.o [20]
      .text               ro code  0x0801bdbc    0x148  route-error.o [20]
      .text               ro code  0x0801bf04     0xd8  security-config-mfg-3xx.o [18]
      .text               ro code  0x0801bfdc    0x348  aps-keys-full.o [19]
      .text               ro code  0x0801c324     0x62  hmac.o [18]
      .text               ro code  0x0801c386     0x56  service-discovery-soc.o [1]
      .text               ro code  0x0801c3dc      0x4  install-code-stub.o [13]
      .text               ro code  0x0801c3e0      0x8  aps-skke-stub.o [18]
      .text               ro code  0x0801c3e8    0x330  ota-storage-simple.o [1]
      .text               ro code  0x0801c718     0x80  ota-client-policy.o [1]
      .text               ro code  0x0801c798     0x20  ota-client-page-request.o [1]
      .text               ro code  0x0801c7b8     0xb6  ota-common.o [1]
      .text               ro code  0x0801c870    0x2b0  ota-storage-eeprom-page-erase.o [1]
      .text               ro code  0x0801cb20    0x224  ota-storage-eeprom.o [1]
      .text               ro code  0x0801cd44    0x188  ota-storage-common.o [1]
      .text               ro code  0x0801cecc      0x4  ota-client-signature-verify.o [1]
      .text               ro code  0x0801ced0    0x15c  aes-mmo.o [18]
      .text               ro code  0x0801d02c    0x84c  zigbee-device.o [20]
      .text               ro code  0x0801d878      0x8  end-device-bind-stub.o [11]
      .text               ro code  0x0801d880     0x32  ABImemset48.o [17]
      .text               ro code  0x0801d8b4     0x28  basic.o [1]
      .text               ro code  0x0801d8dc    0x230  ez-mode.o [1]
      .text               ro code  0x0801db0c    0x134  identify.o [1]
      .text               ro code  0x0801dc40     0xbe  on-off.o [1]
      .text               ro code  0x0801dd00    0x4f8  level-control.o [1]
      .text               ro code  0x0801e1f8     0x90  simple-metering-server.o [1]
      .text               ro code  0x0801e288    0x246  eeprom.o [1]
      .text               ro code  0x0801e4d0    0x1a8  bootloader-interface-app.o [1]
      .text               ro code  0x0801e678      0xa  ota-bootload-soc.o [1]
      .text               ro code  0x0801e682     0x38  eeprom-cli.o [1]
      .text               ro code  0x0801e6bc    0x1c4  zdo-binding-table.o [4]
      .text               ro code  0x0801e880      0x8  simple-metering-test.o [1]
      .text               ro code  0x0801e888    0x114  print-formatter.o [1]
      .text               ro code  0x0801e99c     0x40  bootloader-interface.o [1]
      .text               ro code  0x0801e9dc     0x98  buzzer.o [1]
      .text               ro code  0x0801ea74     0x32  counters-cli.o [1]
      .text               ro code  0x0801eaa8     0x5c  end-device-support-cli.o [1]
      .text               ro code  0x0801eb04     0x80  faults.o [1]
      .text               ro code  0x0801eb84     0x28  idle-sleep-cli.o [1]
      .text               ro code  0x0801ebac      0x0  isr-stubs.o [1]
      .text               ro code  0x0801ebac      0x0  isr-stubs.o [1]
      .text               ro code  0x0801ebac      0x0  isr-stubs.o [1]
      .text               ro code  0x0801ebac      0x0  isr-stubs.o [1]
      .text               ro code  0x0801ebac      0x0  isr-stubs.o [1]
      .text               ro code  0x0801ebac      0x0  isr-stubs.o [1]
      .text               ro code  0x0801ebac      0x0  isr-stubs.o [1]
      .text               ro code  0x0801ebac      0x0  isr-stubs.o [1]
      .text               ro code  0x0801ebac      0x0  isr-stubs.o [1]
      .text               ro code  0x0801ebac      0x0  isr-stubs.o [1]
      .text               ro code  0x0801ebac      0x0  isr-stubs.o [1]
      .text               ro code  0x0801ebac      0x0  isr-stubs.o [1]
      .text               ro code  0x0801ebac      0x0  isr-stubs.o [1]
      .text               ro code  0x0801ebac      0x4  isr-stubs.o [1]
      .text               ro code  0x0801ebb0    0x120  library.o [1]
      .text               ro code  0x0801ecd0    0x108  network-cli.o [1]
      .text               ro code  0x0801edd8    0x24c  option-cli.o [1]
      .text               ro code  0x0801f024     0x2c  ota-bootload-cli.o [1]
      .text               ro code  0x0801f050     0x70  ota-client-cli.o [1]
      .text               ro code  0x0801f0c0    0x114  ota-storage-common-cli.o [1]
      .text               ro code  0x0801f1d4     0xf4  security-cli.o [1]
      .text               ro code  0x0801f2c8    0x77c  zcl-cli.o [1]
      .text               ro code  0x0801fa44    0x3b0  zdo-cli.o [1]
      .text               ro code  0x0801fdf4    0x1cc  cstartup-iar.o [12]
      .text               ro code  0x0801ffc0      0x6  ABImemclr.o [17]
      .text               ro code  0x0801ffc8     0x10  context-switch.o [12]
      .text               ro code  0x0801ffd8     0x38  context-switch.o [12]
      .text               ro code  0x08020010     0x18  cal-pads.o [20]
      .text               ro code  0x08020028     0x3c  address-table-cli.o [1]
      .text               ro code  0x08020064     0x22  cli.o [1]
      .text               ro code  0x08020086     0x14  groups-server-cli.o [1]
      .text               ro code  0x0802009a     0x8e  reporting-cli.o [1]
    .rodata               const    0x08020128     0x50  af-main-common.o [1]
    .rodata               const    0x08020178     0x88  attribute-storage.o [1]
    .rodata               const    0x08020200   0x4e3c  cli.o [1]
    .rodata               const    0x0802503c     0x84  command-interpreter2.o [1]
    .rodata               const    0x080250c0    0x4f0  diagnostic.o [1]
    .rodata               const    0x080255b0      0x3  ember-configuration.o [1]
    .rodata               const    0x080255b3      0x1  binding-table.o [4]
    .rodata               const    0x080255b4     0xcc  library.o [1]
    .rodata               const    0x08025680      0xc  ota-common.o [1]
    .rodata               const    0x0802568c     0x7c  print.o [1]
    .rodata               const    0x08025708      0x8  serial.o [1]
    .rodata               const    0x08025710     0x34  sim-eeprom.o [1]
    .rodata               const    0x08025744    0x35c  token-def.o [1]
    .rodata               const    0x08025aa0      0x8  ember-version.o [20]
    .rodata               const    0x08025aa8      0xc  leaf-routing-stub.o [20]
    .rodata               const    0x08025ab4      0x8  rf4ce-stack-stubs.o [16]
    .rodata               const    0x08025abc     0x1e  mfg-token.o [1]
    .rodata               const    0x08025ada      0x2  micro-common.o [1]
    .rodata               const    0x08025adc      0x1  aps-keys-full.o [19]
    .rodata               const    0x08025add      0x1  zll-stubs.o [21]
    .rodata               const    0x08025ade      0x1  ember-library.o [20]
    .rodata               const    0x08025adf      0x1  trust-center-util.o [18]
    .rodata               const    0x08025ae0      0x1  aps-skke-stub.o [18]
    .rodata               const    0x08025ae1      0x1  cbke-crypto-engine-stub.o [9]
    .rodata               const    0x08025ae2      0x1  install-code-stub.o [13]
    .rodata               const    0x08025ae3      0x1  end-device-bind-stub.o [11]
    .rodata               const    0x08025ae4      0x1  cbke-crypto-engine-dsa-sign-stub.o [7]
    .rodata               const    0x08025ae5      0x1  packet-validate.o [15]
    .rodata               const    0x08025ae6      0x1  alarm-stub.o [3]
    .rodata               const    0x08025ae7      0x1  cbke-crypto-engine-163k1-stub.o [5]
    .rodata               const    0x08025ae8      0x1  cbke-crypto-engine-283k1-stub.o [6]
    .rodata               const    0x08025ae9      0x1  cbke-crypto-engine-dsa-verify-stub.o [8]
    .data_init                     0x08025aec    0x868  <Block>
      Initializer bytes   ro data  0x08025aec    0x868  <for .data-1> (used: 0x0)
                                 - 0x08026354  0x24254

"NVM&SIMEE":                                    0x2000
  SIMEE                            0x0802e000   0x2000  <Block>
    SIMEE                 uninit   0x0802e000   0x2000  sim-eeprom.o [1]
                                 - 0x08030000   0x2000

"FAT":                                            0x2c
  FAT                     uninit   0x08040000     0x2c  cstartup-iar-common.o [1]
                                 - 0x0804002c     0x2c

"Heap":                                          0xd80
  EMHEAP_overlay                   0x20000000    0xd68  <Overlay>
    part 1:
      EMHEAP              uninit   0x20000000    0xd68  ember-configuration.o [1]
    part 2:
      RESETINFO                    0x20000000     0x98  <Block>
        RESETINFO         const    0x20000000      0x0  faults.o [1]
        RESETINFO         const    0x20000000      0x0  isr-stubs.o [1]
        RESETINFO         const    0x20000000      0x0  spmr.o [12]
        RESETINFO         const    0x20000000      0x0  context-switch.o [12]
        RESETINFO         uninit   0x20000000     0x98  cstartup-iar-common.o [1]
                                 - 0x20000d68    0xd68

"Guard":                                          0x20
  GUARD_REGION            uninit   0x20000d80     0x20  cstartup-iar-common.o [1]
                                 - 0x20000da0     0x20

"APP rw":                                       0x1e39
  APPRW_block                      0x200011b0   0x1e39  <Block>
    ALIGN_CSTACK                   0x200011b0    0x960  <Block>
      CSTACK                       0x200011b0    0x960  <Block>
        CSTACK            const    0x200011b0      0x0  faults.o [1]
        CSTACK            const    0x200011b0      0x0  isr-stubs.o [1]
        CSTACK            const    0x200011b0      0x0  spmr.o [12]
        CSTACK            const    0x200011b0      0x0  context-switch.o [12]
        CSTACK            uninit   0x200011b0    0x960  cstartup-iar-common.o [1]
    .data                          0x20001b10    0x868  <Block>
      .data-1                      0x20001b10    0x866  <Init block>
        .data             inited   0x20001b10     0x34  IcontrolDimmableLampApp.o [1]
        .data             inited   0x20001b44     0x24  IcontrolDimmableLampApp.o [1]
        .data             inited   0x20001b68     0x34  af-event.o [1]
        .data             inited   0x20001b9c      0x1  af-main-common.o [1]
        .data             inited   0x20001b9d      0x1  af-main-common.o [1]
        .data             inited   0x20001b9e      0x1  af-main-soc.o [1]
        .data             inited   0x20001b9f      0x1  af-security-common.o [1]
        .data             inited   0x20001ba0      0x8  buzzer.o [1]
        .data             inited   0x20001ba8     0x18  cli.o [1]
        .data             inited   0x20001bc0     0x1c  cli.o [1]
        .data             inited   0x20001bdc      0x8  cli.o [1]
        .data             inited   0x20001be4      0x8  cli.o [1]
        .data             inited   0x20001bec     0x10  cli.o [1]
        .data             inited   0x20001bfc      0xc  cli.o [1]
        .data             inited   0x20001c08      0x8  cli.o [1]
        .data             inited   0x20001c10      0x8  cli.o [1]
        .data             inited   0x20001c18     0x1c  cli.o [1]
        .data             inited   0x20001c34      0x8  cli.o [1]
        .data             inited   0x20001c3c     0x10  cli.o [1]
        .data             inited   0x20001c4c      0xc  cli.o [1]
        .data             inited   0x20001c58      0x8  cli.o [1]
        .data             inited   0x20001c60      0x8  cli.o [1]
        .data             inited   0x20001c68      0x8  cli.o [1]
        .data             inited   0x20001c70      0xc  cli.o [1]
        .data             inited   0x20001c7c      0xc  cli.o [1]
        .data             inited   0x20001c88      0x8  cli.o [1]
        .data             inited   0x20001c90      0x8  cli.o [1]
        .data             inited   0x20001c98      0xc  cli.o [1]
        .data             inited   0x20001ca4      0xc  cli.o [1]
        .data             inited   0x20001cb0      0x8  cli.o [1]
        .data             inited   0x20001cb8     0x10  cli.o [1]
        .data             inited   0x20001cc8     0x10  cli.o [1]
        .data             inited   0x20001cd8     0x10  cli.o [1]
        .data             inited   0x20001ce8     0x10  cli.o [1]
        .data             inited   0x20001cf8     0x14  cli.o [1]
        .data             inited   0x20001d0c      0xc  cli.o [1]
        .data             inited   0x20001d18     0x14  cli.o [1]
        .data             inited   0x20001d2c     0x10  cli.o [1]
        .data             inited   0x20001d3c     0x1c  cli.o [1]
        .data             inited   0x20001d58     0x14  cli.o [1]
        .data             inited   0x20001d6c     0x14  cli.o [1]
        .data             inited   0x20001d80      0x8  cli.o [1]
        .data             inited   0x20001d88      0x8  cli.o [1]
        .data             inited   0x20001d90      0xc  cli.o [1]
        .data             inited   0x20001d9c     0x20  cli.o [1]
        .data             inited   0x20001dbc      0x8  cli.o [1]
        .data             inited   0x20001dc4      0xc  cli.o [1]
        .data             inited   0x20001dd0      0x8  cli.o [1]
        .data             inited   0x20001dd8      0x8  cli.o [1]
        .data             inited   0x20001de0      0x8  cli.o [1]
        .data             inited   0x20001de8      0x8  cli.o [1]
        .data             inited   0x20001df0      0x8  cli.o [1]
        .data             inited   0x20001df8      0x8  cli.o [1]
        .data             inited   0x20001e00      0x8  cli.o [1]
        .data             inited   0x20001e08      0x8  cli.o [1]
        .data             inited   0x20001e10      0x8  cli.o [1]
        .data             inited   0x20001e18      0x8  cli.o [1]
        .data             inited   0x20001e20      0xc  cli.o [1]
        .data             inited   0x20001e2c      0x8  cli.o [1]
        .data             inited   0x20001e34      0x8  cli.o [1]
        .data             inited   0x20001e3c      0x8  cli.o [1]
        .data             inited   0x20001e44     0x18  cli.o [1]
        .data             inited   0x20001e5c     0x10  cli.o [1]
        .data             inited   0x20001e6c      0xc  cli.o [1]
        .data             inited   0x20001e78      0x8  cli.o [1]
        .data             inited   0x20001e80     0x10  cli.o [1]
        .data             inited   0x20001e90     0x10  cli.o [1]
        .data             inited   0x20001ea0      0x8  cli.o [1]
        .data             inited   0x20001ea8      0x8  cli.o [1]
        .data             inited   0x20001eb0      0x8  cli.o [1]
        .data             inited   0x20001eb8     0x10  cli.o [1]
        .data             inited   0x20001ec8     0x10  cli.o [1]
        .data             inited   0x20001ed8      0x8  cli.o [1]
        .data             inited   0x20001ee0      0xc  cli.o [1]
        .data             inited   0x20001eec      0x8  cli.o [1]
        .data             inited   0x20001ef4      0x8  cli.o [1]
        .data             inited   0x20001efc     0x10  cli.o [1]
        .data             inited   0x20001f0c     0x14  cli.o [1]
        .data             inited   0x20001f20     0x10  cli.o [1]
        .data             inited   0x20001f30      0x8  cli.o [1]
        .data             inited   0x20001f38      0x8  cli.o [1]
        .data             inited   0x20001f40      0x8  cli.o [1]
        .data             inited   0x20001f48      0x8  cli.o [1]
        .data             inited   0x20001f50      0x8  cli.o [1]
        .data             inited   0x20001f58      0x8  cli.o [1]
        .data             inited   0x20001f60      0x8  cli.o [1]
        .data             inited   0x20001f68      0x8  cli.o [1]
        .data             inited   0x20001f70      0xc  cli.o [1]
        .data             inited   0x20001f7c     0x14  cli.o [1]
        .data             inited   0x20001f90     0x10  cli.o [1]
        .data             inited   0x20001fa0      0xc  cli.o [1]
        .data             inited   0x20001fac     0x10  cli.o [1]
        .data             inited   0x20001fbc     0x1c  cli.o [1]
        .data             inited   0x20001fd8      0x1  command-interpreter2.o [1]
        .data             inited   0x20001fdc     0x20  command-interpreter2.o [1]
        .data             inited   0x20001ffc     0x12  eeprom.o [1]
        .data             inited   0x2000200e      0x1  ember-configuration.o [1]
        .data             inited   0x2000200f      0x1  ember-configuration.o [1]
        .data             inited   0x20002010      0x4  ember-configuration.o [1]
        .data             inited   0x20002014      0x4  ember-configuration.o [1]
        .data             inited   0x20002018      0x4  ember-configuration.o [1]
        .data             inited   0x2000201c      0x4  ember-configuration.o [1]
        .data             inited   0x20002020      0x4  ember-configuration.o [1]
        .data             inited   0x20002024      0x1  ember-configuration.o [1]
        .data             inited   0x20002028      0x4  ember-configuration.o [1]
        .data             inited   0x2000202c      0x1  ember-configuration.o [1]
        .data             inited   0x20002030      0x4  ember-configuration.o [1]
        .data             inited   0x20002034      0x4  ember-configuration.o [1]
        .data             inited   0x20002038      0x4  ember-configuration.o [1]
        .data             inited   0x2000203c      0x1  ember-configuration.o [1]
        .data             inited   0x20002040      0x4  ember-configuration.o [1]
        .data             inited   0x20002044      0x1  ember-configuration.o [1]
        .data             inited   0x20002048      0x4  ember-configuration.o [1]
        .data             inited   0x2000204c      0x1  ember-configuration.o [1]
        .data             inited   0x20002050      0x4  ember-configuration.o [1]
        .data             inited   0x20002054      0x1  ember-configuration.o [1]
        .data             inited   0x20002058      0x4  ember-configuration.o [1]
        .data             inited   0x2000205c      0x4  ember-configuration.o [1]
        .data             inited   0x20002060      0x1  ember-configuration.o [1]
        .data             inited   0x20002064      0x4  ember-configuration.o [1]
        .data             inited   0x20002068      0x1  ember-configuration.o [1]
        .data             inited   0x2000206c      0x4  ember-configuration.o [1]
        .data             inited   0x20002070      0x1  ember-configuration.o [1]
        .data             inited   0x20002074      0x4  ember-configuration.o [1]
        .data             inited   0x20002078      0x2  ember-configuration.o [1]
        .data             inited   0x2000207a      0x1  ember-configuration.o [1]
        .data             inited   0x2000207b      0x1  ember-configuration.o [1]
        .data             inited   0x2000207c      0x4  ember-configuration.o [1]
        .data             inited   0x20002080      0x1  ember-configuration.o [1]
        .data             inited   0x20002081      0x1  ember-configuration.o [1]
        .data             inited   0x20002082      0x1  ember-configuration.o [1]
        .data             inited   0x20002083      0x1  ember-configuration.o [1]
        .data             inited   0x20002084      0x1  ember-configuration.o [1]
        .data             inited   0x20002086      0x2  ember-configuration.o [1]
        .data             inited   0x20002088      0x1  ember-configuration.o [1]
        .data             inited   0x20002089      0x1  ember-configuration.o [1]
        .data             inited   0x2000208a      0x1  ember-configuration.o [1]
        .data             inited   0x2000208b      0x1  ember-configuration.o [1]
        .data             inited   0x2000208c      0xc  form-and-join-node-adapter.o [1]
        .data             inited   0x20002098     0x44  library.o [1]
        .data             inited   0x200020dc     0x28  micro.o [1]
        .data             inited   0x20002104     0x40  mpu.o [1]
        .data             inited   0x20002144      0x2  option-cli.o [1]
        .data             inited   0x20002148     0x28  ota-client.o [1]
        .data             inited   0x20002170      0x1  ota-client.o [1]
        .data             inited   0x20002174      0xc  ota-common.o [1]
        .data             inited   0x20002180      0x8  ota-storage-eeprom-page-erase.o [1]
        .data             inited   0x20002188     0x24  print.o [1]
        .data             inited   0x200021ac      0x1  print.o [1]
        .data             inited   0x200021ae      0x4  random.o [1]
        .data             inited   0x200021b4     0x20  security-cli.o [1]
        .data             inited   0x200021d4     0x2c  serial.o [1]
        .data             inited   0x20002200     0x20  util.o [1]
        .data             inited   0x20002220      0x1  util.o [1]
        .data             inited   0x20002221      0x1  zigbee-device-common.o [1]
        .data             inited   0x20002224     0x24  association.o [20]
        .data             inited   0x20002248      0xc  association.o [20]
        .data             inited   0x20002254      0xe  leave.o [20]
        .data             inited   0x20002262      0x9  analogue.o [20]
        .data             inited   0x2000226c      0xe  analogue.o [20]
        .data             inited   0x2000227a      0x2  token-cache.o [20]
        .data             inited   0x2000227c      0xa  zigbee-device.o [20]
        .data             inited   0x20002286      0x1  packet-buffer.o [20]
        .data             inited   0x20002288      0x4  application-support.o [20]
        .data             inited   0x2000228c      0x8  zigbee-stack.o [20]
        .data             inited   0x20002294      0x1  zigbee-stack.o [20]
        .data             inited   0x20002298      0x4  micro-internal.o [12]
        .data             inited   0x2000229c      0x4  debug.o [20]
        .data             inited   0x200022a0      0xe  aps-retry.o [20]
        .data             inited   0x200022b0     0x24  scan.o [20]
        .data             inited   0x200022d4      0xa  clocks.o [12]
        .data             inited   0x200022de      0x1  zigbee-device-util.o [20]
        .data             inited   0x200022e0      0x4  network.o [20]
        .data             inited   0x200022e4      0x1  network.o [20]
        .data             inited   0x200022e5      0x2  trust-center-util.o [18]
        .data             inited   0x200022e8      0xe  management.o [20]
        .data             inited   0x200022f6      0x2  random-id.o [20]
        .data             inited   0x200022f8     0x14  mac-arbiter.o [20]
        .data             inited   0x2000230c      0x8  mac-arbiter.o [20]
        .data             inited   0x20002314     0x1c  phy-common.o [20]
        .data             inited   0x20002330      0x1  phy-common.o [20]
        .data             inited   0x20002334     0x14  zdo-channel.o [20]
        .data             inited   0x20002348      0x8  analogue-mod-dac.o [20]
        .data             inited   0x20002350     0x10  mac-receive.o [20]
        .data             inited   0x20002360      0x1  packet-validate.o [15]
        .data             inited   0x20002361      0x2  mac-em250.o [20]
        .data             inited   0x20002363      0x1  mac-em250.o [20]
        .data             inited   0x20002364      0xe  jit.o [20]
        .data             inited   0x20002372      0x4  mac-header.o [20]
    DLIB_PERTHREAD_INITIALIZED_DATA
                                   0x20002378      0x0  <Block>
    DLIB_PERTHREAD_ZERO_DATA
                                   0x20002378      0x0  <Block>
    .bss                           0x20002378    0xc71  <Block>
      .bss                uninit   0x20002378      0x8  IControlDimmableLamp_callbacks.o [1]
      .bss                uninit   0x20002380      0x8  IControlDimmableLamp_callbacks.o [1]
      .bss                uninit   0x20002388      0x8  IControlDimmableLamp_callbacks.o [1]
      .bss                uninit   0x20002390      0x8  IControlDimmableLamp_callbacks.o [1]
      .bss                uninit   0x20002398      0x8  IControlDimmableLamp_callbacks.o [1]
      .bss                uninit   0x200023a0      0x8  IControlDimmableLamp_callbacks.o [1]
      .bss                uninit   0x200023a8      0xc  IcontrolDimmableLampApp.o [1]
      .bss                uninit   0x200023b4     0x64  IcontrolDimmableLampApp.o [1]
      .bss                uninit   0x20002418     0x1e  adc.o [1]
      .bss                uninit   0x20002436      0x2  cstartup-iar-common.o [1]
      .bss                uninit   0x20002438      0x8  af-event.o [1]
      .bss                uninit   0x20002440      0x8  af-event.o [1]
      .bss                uninit   0x20002448      0x8  af-event.o [1]
      .bss                uninit   0x20002450      0x8  af-event.o [1]
      .bss                uninit   0x20002458      0x8  af-event.o [1]
      .bss                uninit   0x20002460      0x8  af-event.o [1]
      .bss                uninit   0x20002468     0x18  af-main-common.o [1]
      .bss                uninit   0x20002480     0xa8  attribute-storage.o [1]
      .bss                uninit   0x20002528     0x18  bootloader-interface-app.o [1]
      .bss                uninit   0x20002540    0x160  bootloader-interface-app.o [1]
      .bss                uninit   0x200026a0     0x80  bootloader-interface-app.o [1]
      .bss                uninit   0x20002720     0x10  client-api.o [1]
      .bss                uninit   0x20002730     0x7c  command-interpreter2.o [1]
      .bss                uninit   0x200027ac     0x44  counters-soc.o [1]
      .bss                uninit   0x200027f0     0x44  counters-soc.o [1]
      .bss                uninit   0x20002834     0x24  counters-soc.o [1]
      .bss                uninit   0x20002858     0x30  ember-configuration.o [1]
      .bss                uninit   0x20002888      0x4  end-device-move.o [1]
      .bss                uninit   0x2000288c     0x14  end-device-support.o [1]
      .bss                uninit   0x200028a0     0x18  ez-mode.o [1]
      .bss                uninit   0x200028b8     0x14  form-and-join.o [1]
      .bss                uninit   0x200028cc      0x4  identify.o [1]
      .bss                uninit   0x200028d0     0x14  level-control.o [1]
      .bss                uninit   0x200028e4     0x10  message.o [1]
      .bss                uninit   0x200028f4     0x54  message.o [1]
      .bss                uninit   0x20002948      0x4  multi-network.o [1]
      .bss                uninit   0x2000294c      0xc  network-find.o [1]
      .bss                uninit   0x20002958      0x8  network-find.o [1]
      .bss                uninit   0x20002960      0xc  ota-storage-eeprom-page-erase.o [1]
      .bss                uninit   0x2000296c      0x8  ota-storage-eeprom.o [1]
      .bss                uninit   0x20002974     0x18  ota-storage-simple.o [1]
      .bss                uninit   0x2000298c      0x8  polling-common.o [1]
      .bss                uninit   0x20002994      0x8  reporting.o [1]
      .bss                uninit   0x2000299c     0x48  reporting.o [1]
      .bss                uninit   0x200029e4     0x88  serial.o [1]
      .bss                uninit   0x20002a6c     0x88  serial.o [1]
      .bss                uninit   0x20002af4     0x14  service-discovery-common.o [1]
      .bss                uninit   0x20002b08     0xbc  sim-eeprom.o [1]
      .bss                uninit   0x20002bc4      0x4  simple-metering-server.o [1]
      .bss                uninit   0x20002bc8      0xc  sleep.o [1]
      .bss                uninit   0x20002bd4     0x54  zcl-cli.o [1]
      .bss                uninit   0x20002c28     0x12  zcl-cli.o [1]
      .bss                uninit   0x20002c3a      0x2  message.o [1]
      .bss                uninit   0x20002c3c     0x1c  zdo-cli.o [1]
      .bss                uninit   0x20002c58      0xc  association.o [20]
      .bss                uninit   0x20002c64      0x8  system-timer.o [12]
      .bss                uninit   0x20002c6c     0x24  analogue.o [20]
      .bss                uninit   0x20002c90      0x8  ember-multi-network-stub.o [14]
      .bss                uninit   0x20002c98      0x8  ember-multi-network-stub.o [14]
      .bss                uninit   0x20002ca0      0x8  ember-multi-network-stub.o [14]
      .bss                uninit   0x20002ca8      0xc  zigbee-dispatch.o [20]
      .bss                uninit   0x20002cb4      0x8  eui64.o [20]
      .bss                uninit   0x20002cbc      0xc  debug.o [20]
      .bss                uninit   0x20002cc8      0x8  zll-stubs.o [21]
      .bss                uninit   0x20002cd0    0x118  phy.o [20]
      .bss                uninit   0x20002de8      0x8  zigbee-device-util.o [20]
      .bss                uninit   0x20002df0      0x8  aps-keys.o [18]
      .bss                uninit   0x20002df8      0x8  context-switch.o [12]
      .bss                uninit   0x20002e00      0x8  neighbor.o [20]
      .bss                uninit   0x20002e08      0x8  leaf-routing-stub.o [20]
      .bss                uninit   0x20002e10      0x8  high-security-stub.o [18]
      .bss                uninit   0x20002e18     0x10  retry.o [20]
      .bss                uninit   0x20002e28     0x40  retry.o [20]
      .bss                uninit   0x20002e68      0x8  aps-skke-stub.o [18]
      .bss                uninit   0x20002e70      0xc  mac.o [20]
      .bss                uninit   0x20002e7c     0x80  mac.o [20]
      .bss                uninit   0x20002efc      0x8  mac-indirect-stub.o [20]
      .bss                uninit   0x20002f04      0x4  aps-encryption.o [18]
      .bss                uninit   0x20002f08      0x8  end-device-bind-stub.o [11]
      .bss                uninit   0x20002f10     0x64  broadcast.o [20]
      .bss                uninit   0x20002f74      0x8  cal-pads.o [20]
      .bss                uninit   0x20002f7c      0x8  mac-em250.o [20]
      .bss                uninit   0x20002f84     0x14  unicast-table.o [20]
      .bss                uninit   0x20002f98      0x8  mac-header.o [20]
      .bss                uninit   0x20002fa0      0x4  IcontrolDimmableLampApp.o [1]
      .bss                uninit   0x20002fa4      0x2  print.o [1]
      .bss                uninit   0x20002fa6      0x2  util.o [1]
      .bss                uninit   0x20002fa8      0x2  util.o [1]
      .bss                uninit   0x20002faa      0x4  sim-eeprom-internal.o [12]
      .bss                uninit   0x20002fae      0x1  af-event.o [1]
      .bss                uninit   0x20002faf      0x1  af-trust-center.o [1]
      .bss                uninit   0x20002fb0      0x2  button.o [1]
      .bss                uninit   0x20002fb2      0x1  command-interpreter2.o [1]
      .bss                uninit   0x20002fb3      0x1  command-interpreter2.o [1]
      .bss                uninit   0x20002fb4      0x1  crypto-state.o [1]
      .bss                uninit   0x20002fb5      0x1  eeprom.o [1]
      .bss                uninit   0x20002fb6      0x1  ember-configuration.o [1]
      .bss                uninit   0x20002fb7      0x1  ember-configuration.o [1]
      .bss                uninit   0x20002fb8      0x1  ember-configuration.o [1]
      .bss                uninit   0x20002fb9      0x1  ember-configuration.o [1]
      .bss                uninit   0x20002fba      0x1  ember-configuration.o [1]
      .bss                uninit   0x20002fbb      0x1  ember-configuration.o [1]
      .bss                uninit   0x20002fbc      0x1  ember-configuration.o [1]
      .bss                uninit   0x20002fbd      0x1  end-device-support.o [1]
      .bss                uninit   0x20002fbe      0x2  idle-sleep.o [1]
      .bss                uninit   0x20002fc0      0x1  idle-sleep.o [1]
      .bss                uninit   0x20002fc1      0x1  micro-common.o [1]
      .bss                uninit   0x20002fc2      0x1  network-cli.o [1]
      .bss                uninit   0x20002fc3      0x1  process-global-message.o [1]
      .bss                uninit   0x20002fc4      0x1  scenes.o [1]
      .bss                uninit   0x20002fc5      0x3  security-address-cache.o [1]
      .bss                uninit   0x20002fc8      0x2  token.o [1]
      .bss                uninit   0x20002fca      0x1  util.o [1]
      .bss                uninit   0x20002fcb      0x1  util.o [1]
      .bss                uninit   0x20002fcc      0x1  zigbee-device-common.o [1]
      .bss                uninit   0x20002fcd      0x2  event-control.o [20]
      .bss                uninit   0x20002fcf      0x1  association.o [20]
      .bss                uninit   0x20002fd0      0x1  zigbee-dispatch.o [20]
      .bss                uninit   0x20002fd1      0x1  child-stub.o [20]
      .bss                uninit   0x20002fd2      0x1  child-stub.o [20]
      .bss                uninit   0x20002fd3      0x1  application-support.o [20]
      .bss                uninit   0x20002fd4      0x2  zigbee-stack.o [20]
      .bss                uninit   0x20002fd6      0x1  debug.o [20]
      .bss                uninit   0x20002fd7      0x1  flash.o [12]
      .bss                uninit   0x20002fd8      0x2  phy.o [20]
      .bss                uninit   0x20002fda      0x2  phy.o [20]
      .bss                uninit   0x20002fdc      0x3  network.o [20]
      .bss                uninit   0x20002fdf      0x1  neighbor.o [20]
      .bss                uninit   0x20002fe0      0x1  leaf-routing-stub.o [20]
      .bss                uninit   0x20002fe1      0x1  high-security-stub.o [18]
      .bss                uninit   0x20002fe2      0x1  random-id.o [20]
      .bss                uninit   0x20002fe3      0x1  command.o [20]
      .bss                uninit   0x20002fe4      0x1  phy-common.o [20]
      .bss                uninit   0x20002fe5      0x3  analogue-vco.o [20]
      .bss                uninit   0x20002fe8      0x1  debug-jtag.o [20]
                                 - 0x20002fe9   0x1e39

"DEBUGCHAN":                                      0x10
  DEBUG_CHANNEL                    0x20002ff0     0x10  <Block>
    DEBUG_CHANNEL         uninit   0x20002ff0     0x10  debug-jtag.o [20]
                                 - 0x20003000     0x10



*******************************************************************************
*** MODULE SUMMARY
***

    Module                                ro code  ro data  rw data
    ------                                -------  -------  -------
D:\Tools\Sengled\Ember\EmberZNet5.3.0-GA\em35x\build\IControlDimmableLamp: [1]
    IControlDimmableLamp_callbacks.o           18                48
    IcontrolDimmableLampApp.o               1 816       88      204
    adc.o                                     676                30
    address-table-cli.o                        60
    address-table-soc.o                       138
    af-event.o                                596       52      101
    af-main-common.o                        1 668       82       26
    af-main-soc.o                           1 168        1        1
    af-node.o                                 124
    af-security-common.o                      152        1        1
    af-trust-center.o                          88                 1
    attribute-size.o                           76
    attribute-storage.o                     3 296      136      168
    attribute-table.o                       1 276
    basic.o                                    40
    bootloader-interface-app.o                424               504
    bootloader-interface.o                     64
    button.o                                  312                 2
    buzzer.o                                  152        8        8
    call-command-handler.o                  1 188
    callback-stub.o                           146
    cli.o                                      34   21 100    1 072
    client-api.o                              500                16
    command-interpreter2.o                  1 972      168      159
    core-cli.o                                264
    counters-cli.o                             50
    counters-soc.o                            348               172
    crc.o                                      36
    crypto-state.o                             16                 1
    cstartup-iar-common.o                     148      316    2 562
    diagnostic.o                            2 892    1 264
    eeprom-cli.o                               56
    eeprom.o                                  582       18       19
    ember-configuration.o                     180      129      153
    end-device-move.o                         216                 4
    end-device-support-cli.o                   92
    end-device-support.o                      336                21
    ez-mode.o                                 560                24
    faults.o                                  128
    form-and-join-node-adapter.o              104       12       12
    form-and-join.o                           770                20
    groups-server-cli.o                        20
    groups-server.o                         1 020
    identify-cli.o                              2
    identify.o                                308                 4
    idle-sleep-cli.o                           40
    idle-sleep-soc.o                           72
    idle-sleep.o                              144                 3
    isr-stubs.o                                 4
    led.o                                      94
    level-control.o                         1 272                20
    library.o                                 288      272       68
    mem-util.o                                210
    message.o                                 288               102
    mfg-token.o                               244       30
    micro-common.o                            224        2        1
    micro.o                                   628       40       40
    mpu.o                                     116       64       64
    multi-network.o                           100                 4
    network-cli.o                             264                 1
    network-find.o                            344                20
    on-off.o                                  190
    option-cli.o                              588        2        2
    ota-bootload-cli.o                         44
    ota-bootload-soc.o                         10
    ota-client-cli.o                          112
    ota-client-page-request.o                  32
    ota-client-policy.o                       128
    ota-client-signature-verify.o               4
    ota-client.o                            3 224       43       41
    ota-common.o                              182       27       12
    ota-storage-common-cli.o                  276
    ota-storage-common.o                      392
    ota-storage-eeprom-page-erase.o           688        8       20
    ota-storage-eeprom.o                      548                 8
    ota-storage-simple.o                      816                24
    polling-common.o                          112                 8
    polling-soc.o                             118
    print-formatter.o                         276
    print.o                                   320      161       39
    process-cluster-message.o                  66
    process-global-message.o                1 110                 1
    pwm-control.o                             196
    random.o                                   72        5        4
    reporting-cli.o                           142
    reporting.o                             2 096                80
    scenes.o                                2 228                 1
    security-address-cache.o                   16                 3
    security-cli.o                            244       34       32
    serial.o                                1 144       52      316
    service-discovery-common.o                726                20
    service-discovery-soc.o                    86
    sim-eeprom.o                              436       52    8 380
    simple-metering-server.o                  144                 4
    simple-metering-test.o                      8
    sleep.o                                 1 632                12
    token-def.o                                        860
    token.o                                   344                 2
    uart.o                                    684
    util.o                                  1 720       33       39
    zcl-cli.o                               1 916               102
    zdo-cli.o                                 944                28
    zigbee-device-common.o                    262        1        2
    zigbee-device-library.o                   664
    ---------------------------------------------------------------
    Total:                                 53 384   25 061   14 836

command line: [2]
    ---------------------------------------------------------------
    Total:

alarm-stub-library.a: [3]
    alarm-stub.o                               10        1
    ---------------------------------------------------------------
    Total:                                     10        1

binding-table-library.a: [4]
    binding-table.o                         1 200        1
    zdo-binding-table.o                       452
    ---------------------------------------------------------------
    Total:                                  1 652        1

cbke-163k1-stub-library.a: [5]
    cbke-crypto-engine-163k1-stub.o             6        1
    ---------------------------------------------------------------
    Total:                                      6        1

cbke-283k1-stub-library.a: [6]
    cbke-crypto-engine-283k1-stub.o             6        1
    ---------------------------------------------------------------
    Total:                                      6        1

cbke-library-dsa-sign-stub.a: [7]
    cbke-crypto-engine-dsa-sign-stub.o          4        1
    ---------------------------------------------------------------
    Total:                                      4        1

cbke-library-dsa-verify-stub.a: [8]
    cbke-crypto-engine-dsa-verify-stub.o                 1
    ---------------------------------------------------------------
    Total:                                               1

cbke-stub-library.a: [9]
    cbke-crypto-engine-stub.o                  14        1
    ---------------------------------------------------------------
    Total:                                     14        1

dl7M_tln.a: [10]
    abs.o                                       8
    ---------------------------------------------------------------
    Total:                                      8

end-device-bind-stub-library.a: [11]
    end-device-bind-stub.o                      8        1        8
    ---------------------------------------------------------------
    Total:                                      8        1        8

hal-library.a: [12]
    caladc.o                                  284
    clocks.o                                1 108       10       10
    context-switch.o                           80                 8
    cstartup-iar.o                            460
    flash.o                                   288                 1
    micro-common-internal.o                   496
    micro-internal.o                          412        7        4
    sim-eeprom-internal.o                   2 800                 4
    spmr.o                                     62
    system-timer.o                            256                 8
    ---------------------------------------------------------------
    Total:                                  6 246       17       35

install-code-library-stub.a: [13]
    install-code-stub.o                         4        1
    ---------------------------------------------------------------
    Total:                                      4        1

multi-network-stub-library.a: [14]
    ember-multi-network-stub.o                520                24
    ---------------------------------------------------------------
    Total:                                    520                24

packet-validate-library.a: [15]
    packet-validate.o                         920        2        1
    ---------------------------------------------------------------
    Total:                                    920        2        1

rf4ce-stack-stub-library.a: [16]
    rf4ce-stack-stubs.o                        80        8
    ---------------------------------------------------------------
    Total:                                     80        8

rt7M_tl.a: [17]
    ABImemclr.o                                 6
    ABImemclr4.o                                6
    ABImemcpy.o                               118
    ABImemset.o                               102
    ABImemset48.o                              50
    ---------------------------------------------------------------
    Total:                                    282

security-library-core.a: [18]
    aes-mmo.o                                 348
    aps-encryption.o                          788                 4
    aps-keys.o                              1 280                 8
    aps-security.o                          3 240
    aps-skke-stub.o                             8        1        8
    high-security-stub.o                        8                 9
    hmac.o                                     98
    security-config-mfg-3xx.o                 216
    trust-center-util.o                     1 160        3        2
    ---------------------------------------------------------------
    Total:                                  7 146        4       31

security-library-link-keys.a: [19]
    aps-keys-full.o                           840        1
    ---------------------------------------------------------------
    Total:                                    840        1

zigbee-pro-leaf-stack.a: [20]
    address-table.o                         1 024
    aes.o                                     174
    analogue-cell-bias.o                      236
    analogue-filter.o                          80
    analogue-lna.o                            426
    analogue-mod-dac.o                        616        8        8
    analogue-vco.o                            208                 3
    analogue.o                              1 460       24       59
    application-support.o                   2 344        5        5
    aps-retry.o                             2 364       14       14
    association.o                           5 556       50       61
    broadcast.o                               336               100
    byte-utilities.o                           68
    cal-pads.o                                 24                 8
    child-aging.o                             380
    child-stub.o                               54                 2
    child-table.o                              64
    command.o                                 880                 1
    crypto.o                                1 432
    debug-jtag.o                              656                17
    debug.o                                 1 012        4       17
    ember-library.o                           128        1
    ember-stack-common.o                      472
    ember-version.o                                      8
    eui64.o                                    24                 8
    event-control.o                           600                 2
    jit.o                                     648       14       14
    leaf-routing-stub.o                       212       12        9
    leave.o                                   936       14       14
    mac-arbiter.o                           1 040       28       28
    mac-em250.o                               460        3       11
    mac-header.o                              816        4       12
    mac-indirect-stub.o                        28                 8
    mac-receive.o                             712       16       16
    mac.o                                   1 104               140
    management.o                              836       15       14
    neighbor.o                              1 600                 9
    network.o                               5 380        6        8
    packet-buffer.o                         1 724        1        1
    packet-header.o                           588
    phy-common.o                            2 204       29       30
    phy-util.o                                 18
    phy.o                                   1 452               284
    random-id.o                               748        2        3
    retry.o                                   650                80
    route-error.o                             328
    scan.o                                  1 024       38       36
    symbol-timer.o                             92
    token-cache.o                             384        2        2
    unicast-table.o                           100                20
    zdo-channel.o                             880       23       20
    zigbee-device-util.o                    1 580        1        9
    zigbee-device.o                         2 124       10       10
    zigbee-dispatch.o                         228                13
    zigbee-neighbor.o                         500
    zigbee-packet-header.o                  1 408
    zigbee-stack.o                          1 116        9       11
    ---------------------------------------------------------------
    Total:                                 51 538      341    1 107

zll-stub-library.a: [21]
    zll-stubs.o                                50        1        8
    ---------------------------------------------------------------
    Total:                                     50        1        8

    Gaps                                       58                53
    Linker created                                       2    3 432
-------------------------------------------------------------------
    Grand Total:                          122 776   25 446   19 535


*******************************************************************************
*** ENTRY LIST
***

Entry                      Address    Size  Type      Object
-----                      -------    ----  ----      ------
.bss$$Base              0x20002378           --   Gb  - Linker created -
.bss$$Length            0x00000c71           --   Gb  - Linker created -
.bss$$Limit             0x20002fe9           --   Gb  - Linker created -
.data$$Base             0x20001b10           --   Gb  - Linker created -
.data$$Limit            0x20002378           --   Gb  - Linker created -
.data_init$$Base        0x08025aec           --   Gb  - Linker created -
.data_init$$Length      0x00000868           --   Gb  - Linker created -
.data_init$$Limit       0x08026354           --   Gb  - Linker created -
.noinit$$Base           0x00000000           --   Gb  - Linker created -
.text$$Base             0x08002190           --   Gb  - Linker created -
.text$$Limit            0x08020128           --   Gb  - Linker created -
.textrw$$Base           0x00000000           --   Gb  - Linker created -
.textrw_init$$Base      0x00000000           --   Gb  - Linker created -
.textrw_init$$Length    0x00000000           --   Gb  - Linker created -
ALIGN_CSTACK$$Base      0x200011b0           --   Gb  - Linker created -
ALIGN_CSTACK$$Limit     0x20001b10           --   Gb  - Linker created -
APPRO_block$$Base       0x08002100           --   Gb  - Linker created -
APPRO_block$$Limit      0x08026354           --   Gb  - Linker created -
APPRW_block$$Base       0x200011b0           --   Gb  - Linker created -
APPRW_block$$Limit      0x20002fe9           --   Gb  - Linker created -
APP_RAM$$Base           0x00000000           --   Gb  - Linker created -
APP_RAM$$Length         0x00000000           --   Gb  - Linker created -
ActivePowerDelayEventControl
                        0x20002390     0x8  Data  Gb  IControlDimmableLamp_callbacks.o [1]
ActivePowerDelayEventControl
                        0x20001b54     0x8  Data  Gb  IcontrolDimmableLampApp.o [1]
ActivePowerDelayEventFunction
                        0x08014b7b     0x2  Code  Gb  IControlDimmableLamp_callbacks.o [1]
AdcControlFunction      0x08002669   0x19c  Code  Gb  IcontrolDimmableLampApp.o [1]
AdcControlInit          0x08002505    0x1e  Code  Gb  IcontrolDimmableLampApp.o [1]
CSTACK$$Base            0x200011b0           --   Gb  - Linker created -
CSTACK$$Limit           0x20001b10           --   Gb  - Linker created -
DEBUG_CHANNEL$$Base     0x20002ff0           --   Gb  - Linker created -
DEBUG_CHANNEL$$Limit    0x20003000           --   Gb  - Linker created -
DLIB_PERTHREAD_INITIALIZED_DATA$$Base
                        0x20002378           --   Gb  - Linker created -
DLIB_PERTHREAD_INITIALIZED_DATA$$Limit
                        0x20002378           --   Gb  - Linker created -
DLIB_PERTHREAD_ZERO_DATA$$Base
                        0x20002378           --   Gb  - Linker created -
DLIB_PERTHREAD_ZERO_DATA$$Length
                        0x00000000           --   Gb  - Linker created -
DLIB_PERTHREAD_ZERO_DATA$$Limit
                        0x20002378           --   Gb  - Linker created -
EMHEAP_overlay$$Base    0x20000000           --   Gb  - Linker created -
EMHEAP_overlay$$Limit   0x20000d68           --   Gb  - Linker created -
ERASE_CRITICAL_THRESHOLD
                        0x0802571c     0x2  Data  Gb  sim-eeprom.o [1]
FunctionDiagnosticsCluster
                        0x080022ef    0x4c  Code  Gb  IcontrolDimmableLampApp.o [1]
GetEfficiencyPtr        0x08002523    0x24  Code  Gb  IcontrolDimmableLampApp.o [1]
GetFilteredValue        0x0800260d    0x58  Code  Gb  IcontrolDimmableLampApp.o [1]
GetLedInitialValue      0x08002213    0x28  Code  Gb  IcontrolDimmableLampApp.o [1]
HEADER_block$$Base      0x08002000           --   Gb  - Linker created -
HEADER_block$$Limit     0x080020ac           --   Gb  - Linker created -
ID_COUNT                0x0802571e     0x2  Data  Gb  sim-eeprom.o [1]
INTERNAL_STORAGE$$Base  0x00000000           --   Gb  - Linker created -
JoinTheNetworkEventControl
                        0x20002388     0x8  Data  Gb  IControlDimmableLamp_callbacks.o [1]
JoinTheNetworkEventControl
                        0x20001b5c     0x8  Data  Gb  IcontrolDimmableLampApp.o [1]
JoinTheNetworkEventFunction
                        0x08014b79     0x2  Code  Gb  IControlDimmableLamp_callbacks.o [1]
JoinTheNetworkFunction  0x080024c3    0x42  Code  Gb  IcontrolDimmableLampApp.o [1]
JoinTheNetworkInit      0x080023cb    0x14  Code  Gb  IcontrolDimmableLampApp.o [1]
LEFT_BASE               0x08025714     0x2  Data  Gb  sim-eeprom.o [1]
LEFT_TOP                0x08025716     0x2  Data  Gb  sim-eeprom.o [1]
Nvdd                    0x2000241e     0x2  Data  Lc  adc.o [1]
Nvss                    0x20002434     0x2  Data  Lc  adc.o [1]
PTR_CACHE_SIZE          0x08025720     0x2  Data  Gb  sim-eeprom.o [1]
PendSV_Handler          0x0801ffd9          Code  Gb  context-switch.o [12]
PowerConsumptionEventControl
                        0x200023a0     0x8  Data  Gb  IControlDimmableLamp_callbacks.o [1]
PowerConsumptionEventControl
                        0x20001b3c     0x8  Data  Gb  IcontrolDimmableLampApp.o [1]
PowerConsumptionEventFunction
                        0x08014b7f     0x2  Code  Gb  IControlDimmableLamp_callbacks.o [1]
REAL_PAGES_PER_VIRTUAL  0x08025710     0x1  Data  Gb  sim-eeprom.o [1]
REAL_PAGE_SIZE          0x08025712     0x2  Data  Gb  sim-eeprom.o [1]
RESETINFO$$Base         0x20000000           --   Gb  - Linker created -
RESETINFO$$Limit        0x20000098           --   Gb  - Linker created -
RIGHT_BASE              0x08025718     0x2  Data  Gb  sim-eeprom.o [1]
RIGHT_TOP               0x0802571a     0x2  Data  Gb  sim-eeprom.o [1]
Region$$Table$$Base     0x00000000           --   Gb  - Linker created -
Region$$Table$$Limit    0x00000000           --   Gb  - Linker created -
SIMEE$$Base             0x0802e000           --   Gb  - Linker created -
SIMEE$$Limit            0x08030000           --   Gb  - Linker created -
SetLedCct               0x08002191    0x36  Code  Gb  IcontrolDimmableLampApp.o [1]
SetLedDimming           0x080021c7    0x4c  Code  Gb  IcontrolDimmableLampApp.o [1]
SetLedInitialValue      0x08002243    0x3a  Code  Gb  IcontrolDimmableLampApp.o [1]
SetPwmLevel             0x08002951     0xc  Code  Gb  pwm-control.o [1]
TOKEN_CURRENT_LEVEL_1_DEFAULTS
                        0x080259ec     0x1  Data  Gb  token-def.o [1]
TOKEN_CURRENT_SUMMATION_DELIVERED_1_DEFAULTS
                        0x080259f0     0x8  Data  Gb  token-def.o [1]
TOKEN_MFG_1V8_REG_VOLTAGE
                        0x08025ac4     0x2  Data  Gb  mfg-token.o [1]
TOKEN_MFG_ANALOG_TRIM_BOOST
                        0x08025abe     0x2  Data  Gb  mfg-token.o [1]
TOKEN_MFG_ANALOG_TRIM_BOTH
                        0x08025ac0     0x2  Data  Gb  mfg-token.o [1]
TOKEN_MFG_ANALOG_TRIM_NORMAL
                        0x08025abc     0x2  Data  Gb  mfg-token.o [1]
TOKEN_MFG_CCA_THRESHOLD
                        0x08025ad4     0x2  Data  Gb  mfg-token.o [1]
TOKEN_MFG_EUI_64        0x08025ad8     0x2  Data  Gb  mfg-token.o [1]
TOKEN_MFG_FIB_VERSION   0x08025ac8     0x2  Data  Gb  mfg-token.o [1]
TOKEN_MFG_OSC24M_BIAS_TRIM
                        0x08025ace     0x2  Data  Gb  mfg-token.o [1]
TOKEN_MFG_PHY_CONFIG    0x08025acc     0x2  Data  Gb  mfg-token.o [1]
TOKEN_MFG_REG_TRIM      0x08025ac2     0x2  Data  Gb  mfg-token.o [1]
TOKEN_MFG_SECURE_BOOTLOADER_KEY
                        0x08025ad6     0x2  Data  Gb  mfg-token.o [1]
TOKEN_MFG_SECURITY_CONFIG
                        0x08025ad2     0x2  Data  Gb  mfg-token.o [1]
TOKEN_MFG_STRING        0x08025aca     0x2  Data  Gb  mfg-token.o [1]
TOKEN_MFG_SYNTH_FREQ_OFFSET
                        0x08025ad0     0x2  Data  Gb  mfg-token.o [1]
TOKEN_MFG_TEMP_CAL      0x08025ac6     0x2  Data  Gb  mfg-token.o [1]
TOKEN_MULTI_NETWORK_STACK_ALTERNATE_KEY_DEFAULTS
                        0x08025888    0x14  Data  Gb  token-def.o [1]
TOKEN_MULTI_NETWORK_STACK_KEYS_DEFAULTS
                        0x08025864    0x14  Data  Gb  token-def.o [1]
TOKEN_MULTI_NETWORK_STACK_NETWORK_MANAGEMENT_DEFAULTS
                        0x080258b8     0x8  Data  Gb  token-def.o [1]
TOKEN_MULTI_NETWORK_STACK_NODE_DATA_DEFAULTS
                        0x08025878    0x10  Data  Gb  token-def.o [1]
TOKEN_MULTI_NETWORK_STACK_NONCE_COUNTER_DEFAULTS
                        0x080258cc     0x4  Data  Gb  token-def.o [1]
TOKEN_MULTI_NETWORK_STACK_PARENT_INFO_DEFAULTS
                        0x080258c0     0xc  Data  Gb  token-def.o [1]
TOKEN_MULTI_NETWORK_STACK_TRUST_CENTER_DEFAULTS
                        0x0802589c    0x1c  Data  Gb  token-def.o [1]
TOKEN_REPORT_TABLE_DEFAULTS
                        0x08025a0c    0x14  Data  Gb  token-def.o [1]
TOKEN_SCENES_NUM_ENTRIES_DEFAULTS
                        0x080259f8     0x1  Data  Gb  token-def.o [1]
TOKEN_SCENES_TABLE_DEFAULTS
                        0x080259fc    0x10  Data  Gb  token-def.o [1]
TOKEN_STACK_ALTERNATE_KEY_DEFAULTS
                        0x080257ec    0x14  Data  Gb  token-def.o [1]
TOKEN_STACK_ANALYSIS_REBOOT_DEFAULTS
                        0x08025808     0x2  Data  Gb  token-def.o [1]
TOKEN_STACK_APS_FRAME_COUNTER_DEFAULTS
                        0x080257e8     0x4  Data  Gb  token-def.o [1]
TOKEN_STACK_BINDING_TABLE_DEFAULTS
                        0x080258d0    0x10  Data  Gb  token-def.o [1]
TOKEN_STACK_BOOT_COUNTER_DEFAULTS
                        0x08025800     0x2  Data  Gb  token-def.o [1]
TOKEN_STACK_CAL_DATA_DEFAULTS
                        0x08025860     0x4  Data  Gb  token-def.o [1]
TOKEN_STACK_CERTIFICATE_TABLE_DEFAULTS
                        0x08025908    0x5c  Data  Gb  token-def.o [1]
TOKEN_STACK_CHILD_TABLE_DEFAULTS
                        0x080258e0     0xc  Data  Gb  token-def.o [1]
TOKEN_STACK_KEYS_DEFAULTS
                        0x0802580c    0x14  Data  Gb  token-def.o [1]
TOKEN_STACK_KEY_TABLE_DEFAULTS
                        0x080258ec    0x1c  Data  Gb  token-def.o [1]
TOKEN_STACK_NETWORK_MANAGEMENT_DEFAULTS
                        0x0802584c     0x8  Data  Gb  token-def.o [1]
TOKEN_STACK_NODE_DATA_DEFAULTS
                        0x08025820    0x10  Data  Gb  token-def.o [1]
TOKEN_STACK_NONCE_COUNTER_DEFAULTS
                        0x08025804     0x4  Data  Gb  token-def.o [1]
TOKEN_STACK_NVDATA_VERSION_DEFAULTS
                        0x080257e4     0x2  Data  Gb  token-def.o [1]
TOKEN_STACK_PARENT_INFO_DEFAULTS
                        0x08025854     0xc  Data  Gb  token-def.o [1]
TOKEN_STACK_RF4CE_DATA_DEFAULTS
                        0x0802599c    0x2c  Data  Gb  token-def.o [1]
TOKEN_STACK_RF4CE_PAIRING_TABLE_DEFAULTS
                        0x080259c8    0x24  Data  Gb  token-def.o [1]
TOKEN_STACK_TRUST_CENTER_DEFAULTS
                        0x08025830    0x1c  Data  Gb  token-def.o [1]
TOKEN_STACK_ZLL_DATA_DEFAULTS
                        0x08025964    0x10  Data  Gb  token-def.o [1]
TOKEN_STACK_ZLL_SECURITY_DEFAULTS
                        0x08025974    0x28  Data  Gb  token-def.o [1]
WritePowerAttributeEventControl
                        0x20002398     0x8  Data  Gb  IControlDimmableLamp_callbacks.o [1]
WritePowerAttributeEventControl
                        0x20001b18     0x8  Data  Gb  IcontrolDimmableLampApp.o [1]
WritePowerAttributeEventFunction
                        0x08014b7d     0x2  Code  Gb  IControlDimmableLamp_callbacks.o [1]
__DLIB_PERTHREAD_init$$Base
                        0x00000000           --   Gb  - Linker created -
__DLIB_PERTHREAD_init$$Length
                        0x00000000           --   Gb  - Linker created -
__aeabi_memclr          0x0801ffc1          Code  Gb  ABImemclr.o [17]
__aeabi_memclr4         0x0801a36d          Code  Gb  ABImemclr4.o [17]
__aeabi_memcpy          0x0800cc4d          Code  Gb  ABImemcpy.o [17]
__aeabi_memcpy4         0x0800cc6d          Code  Gb  ABImemcpy.o [17]
__aeabi_memcpy8         0x0800cc6d          Code  Gb  ABImemcpy.o [17]
__aeabi_memset          0x0800dee9          Code  Gb  ABImemset.o [17]
__iar_Memset            0x0800dee9          Code  Gb  ABImemset.o [17]
__iar_Memset4_word      0x0801d881          Code  Gb  ABImemset48.o [17]
__iar_Memset8_word      0x0801d881          Code  Gb  ABImemset48.o [17]
__iar_Memset_word       0x0800def1          Code  Gb  ABImemset.o [17]
__vector_table          0x08002100    0x90  Data  Gb  cstartup-iar-common.o [1]
_basePriIsDisabled      0x08007431          Code  Gb  spmr.o [12]
_clearPriMask           0x0800efb5          Code  Gb  spmr.o [12]
_disableBasePri         0x08004a69          Code  Gb  spmr.o [12]
_enableBasePri          0x08006785          Code  Gb  spmr.o [12]
_executeBarrierInstructions
                        0x0800efb9          Code  Gb  spmr.o [12]
_macTransmitBuffer      0x20002e7c    0x80  Data  Gb  mac.o [20]
_setPriMask             0x0800ef3d          Code  Gb  spmr.o [12]
_writeBasePri           0x08004a75          Code  Gb  spmr.o [12]
abs                     0x0801a263     0x8  Code  Gb  abs.o [10]
adcCalibrated           0x2000241b     0x1  Data  Lc  adc.o [1]
adcChannel              0x08002898     0x4  Data  Gb  IcontrolDimmableLampApp.o [1]
adcChannelIndex         0x20001b10     0x1  Data  Lc  IcontrolDimmableLampApp.o [1]
adcConfig               0x2000242c     0x8  Data  Lc  adc.o [1]
adcData                 0x2000241c     0x2  Data  Lc  adc.o [1]
adcPendingConversion    0x20002419     0x1  Data  Lc  adc.o [1]
adcPendingRequests      0x20002418     0x1  Data  Lc  adc.o [1]
adcReadingValid         0x2000241a     0x1  Data  Lc  adc.o [1]
adcReadings             0x20002424     0x8  Data  Lc  adc.o [1]
adcStaticConfig         0x20002420     0x2  Data  Lc  adc.o [1]
addEntryToGroupTable    0x0800e6c9    0x64  Code  Lc  groups-server.o [1]
addToApplicationQueue   0x08012789    0x32  Code  Lc  network.o [20]
addressCacheSize        0x20002fc5     0x1  Data  Gb  security-address-cache.o [1]
addressCacheStartIndex  0x20002fc6     0x1  Data  Lc  security-address-cache.o [1]
addressIndexIsActive    0x08013a7f    0x2e  Code  Lc  aps-retry.o [20]
addressMatchingEnabled  0x20002319     0x1  Data  Lc  phy-common.o [20]
addressTableReferenceCounts
                        0x20002fa6     0x2  Data  Lc  util.o [1]
adjustLna               0x080170e1     0x8  Code  Lc  analogue-lna.o [20]
adjustVco               0x08016da9    0x22  Code  Lc  analogue-vco.o [20]
aesHashNextBlock        0x0801ced1    0x36  Code  Lc  aes-mmo.o [18]
afDeviceEnabled         0x20002fca     0x1  Data  Gb  util.o [1]
afsrBits                0x080054b4    0x10  Data  Lc  diagnostic.o [1]
age                     0x20002f11     0x1  Data  Lc  broadcast.o [20]
allowIdling             0x20002fcd     0x1  Data  Lc  event-control.o [20]
appResponseData         0x200028f4    0x54  Data  Gb  message.o [1]
appResponseLength       0x200028e6     0x2  Data  Gb  message.o [1]
appZclBuffer            0x20002bd4    0x54  Data  Gb  zcl-cli.o [1]
appZclBufferLen         0x20002c36     0x2  Data  Gb  zcl-cli.o [1]
applicationProcessIncomingData
                        0x0800a025   0x178  Code  Lc  application-support.o [20]
apsCommandBaseSizes     0x08018504    0x10  Data  Lc  packet-validate.o [15]
apsCommandPacketIsValid
                        0x0801837b    0x50  Code  Lc  packet-validate.o [15]
apsPacketIsValid        0x08018311    0x6a  Code  Lc  packet-validate.o [15]
arePageCountersOkay     0x0801060d    0x3e  Code  Lc  sim-eeprom-internal.o [12]
areaNames               0x20002188    0x24  Data  Lc  print.o [1]
askServerToRunUpgrade   0x0801676f    0x24  Code  Lc  ota-client.o [1]
attributeData           0x20002494    0x48  Data  Gb  attribute-storage.o [1]
attributeManufacturerCodes
                        0x08003f7c     0x4  Data  Gb  attribute-storage.o [1]
attributeSizes          0x0800579c    0x2c  Data  Lc  attribute-size.o [1]
autoAckEnabled          0x2000231a     0x1  Data  Lc  phy-common.o [20]
baseHeaderLength        0x08017eb0    0x10  Data  Lc  packet-header.o [20]
baudSettings            0x0800d260    0x14  Data  Gb  uart.o [1]
biasTrim                0x200022dc     0x2  Data  Gb  clocks.o [12]
bindingDirection        0x200028a2     0x1  Data  Lc  ez-mode.o [1]
bindingGroupMatch       0x0800ea63    0x26  Code  Lc  groups-server.o [1]
bindingIndex            0x200028a4     0x1  Data  Lc  ez-mode.o [1]
blacklistedIdBytes      0x200022f6     0x1  Data  Lc  random-id.o [20]
blacklistedIds          0x200022f7     0x1  Data  Lc  random-id.o [20]
boostTxPowerMax         0x20002270     0x8  Data  Gb  analogue.o [20]
bootloadStateToExternalState
                        0x08016a78     0xc  Data  Lc  ota-client.o [1]
bothTokSerialRegId      0x08016d44     0x8  Data  Gb  analogue-cell-bias.o [20]
broadcastMessageSent    0x08013975    0xde  Code  Lc  aps-retry.o [20]
buff                    0x200026a0    0x80  Data  Lc  bootloader-interface-app.o [1]
button0State            0x20002fb0     0x1  Data  Gb  button.o [1]
button1State            0x20002fb1     0x1  Data  Gb  button.o [1]
buttonEventControl      0x20002380     0x8  Data  Gb  IControlDimmableLamp_callbacks.o [1]
buttonEventControl      0x20001b4c     0x8  Data  Gb  IcontrolDimmableLampApp.o [1]
buttonEventHandler      0x08014b77     0x2  Code  Gb  IControlDimmableLamp_callbacks.o [1]
buttonFirst             0x20001b46     0x1  Data  Lc  IcontrolDimmableLampApp.o [1]
buttonState             0x20001b44     0x1  Data  Lc  IcontrolDimmableLampApp.o [1]
buttonTimer             0x20001b45     0x1  Data  Lc  IcontrolDimmableLampApp.o [1]
cacheBuffer             0x2000227a     0x1  Data  Lc  token-cache.o [20]
cachedImageId           0x20002974    0x10  Data  Lc  ota-storage-simple.o [1]
cachedImageSize         0x20002988     0x4  Data  Lc  ota-storage-simple.o [1]
cachingNetworkIndex     0x2000227b     0x1  Data  Lc  token-cache.o [20]
calAdcTempOffset        0x20002fd9     0x1  Data  Lc  phy.o [20]
calAdcTempOffsetValid   0x20002fd8     0x1  Data  Lc  phy.o [20]
calDisableAdc           0x0800f07f     0xc  Code  Gb  caladc.o [12]
calModDacWithPaEnableMask
                        0x2000234a     0x2  Data  Lc  analogue-mod-dac.o [20]
calModDacWithSpreading  0x20002348     0x1  Data  Lc  analogue-mod-dac.o [20]
calReadAdcAtestAWithSpreading
                        0x08016e87    0xb6  Code  Lc  analogue-mod-dac.o [20]
calReadAdcBlocking      0x0800f007    0x6c  Code  Gb  caladc.o [12]
calStartAdcConversion   0x0800efd1    0x36  Code  Gb  caladc.o [12]
calStartAndReadAdc      0x0800f073     0xc  Code  Gb  caladc.o [12]
calculateTimer          0x080169d5    0x1e  Code  Lc  ota-client.o [1]
callCommandAction       0x08008c73   0x1c8  Code  Lc  command-interpreter2.o [1]
callMessageSentHandlerForSleepyBroadcast
                        0x0801b367    0x44  Code  Lc  jit.o [20]
ccaAttempt              0x20002322     0x1  Data  Lc  phy-common.o [20]
cfsrBits                0x0800544c    0x68  Data  Lc  diagnostic.o [1]
changeKeyCommand        0x0801f1d5    0x28  Code  Gb  security-cli.o [1]
changeToChannel         0x20002334     0x1  Data  Lc  zdo-channel.o [20]
channelCache            0x200028b9     0x1  Data  Lc  form-and-join.o [1]
channelMaskCache        0x200028c0     0x4  Data  Lc  form-and-join.o [1]
charDowncase            0x08008c4d     0xe  Code  Lc  command-interpreter2.o [1]
checkDelay              0x0801c88b    0x22  Code  Lc  ota-storage-eeprom-page-erase.o [1]
checkForMovedChild      0x0801202b    0x22  Code  Lc  network.o [20]
checkMaybeSetParentToken
                        0x0800cb35    0x4a  Code  Lc  association.o [20]
childJitMessage         0x0801b29d    0xca  Code  Lc  jit.o [20]
cleanupEvent            0x20002090     0x8  Data  Lc  form-and-join-node-adapter.o [1]
clearCachedId           0x0801c4bb     0xa  Code  Lc  ota-storage-simple.o [1]
clearNetworkSecurityFromMessage
                        0x0800bc1b    0x28  Code  Lc  association.o [20]
clearPartialWrite       0x0801e30f     0xe  Code  Lc  eeprom.o [1]
cliBufferPrint          0x0801f2eb    0x54  Code  Gb  zcl-cli.o [1]
cliNetworkKey           0x200021c4    0x10  Data  Gb  security-cli.o [1]
cliPreconfiguredLinkKey
                        0x200021b4    0x10  Data  Gb  security-cli.o [1]
clusterIdsForEzModeMatch
                        0x200028b4     0x4  Data  Lc  ez-mode.o [1]
clusterIdsForEzModeMatchLength
                        0x200028a3     0x1  Data  Lc  ez-mode.o [1]
clusterManufacturerCodes
                        0x08003f78     0x4  Data  Gb  attribute-storage.o [1]
clusterTickWrapper      0x080074cf    0x1e  Code  Lc  af-event.o [1]
commandParse            0x08016231    0xa6  Code  Lc  ota-client.o [1]
commandState            0x20002730    0x78  Data  Lc  command-interpreter2.o [1]
complete                0x0801d8dd    0x10  Code  Lc  ez-mode.o [1]
conditionallySendReport
                        0x0800610b    0x1c  Code  Lc  reporting.o [1]
configureReceivedAttribute
                        0x080066a9    0xd6  Code  Lc  reporting.o [1]
continueImageDownload   0x08016625    0x62  Code  Lc  ota-client.o [1]
continueImageVerification
                        0x080166df    0x90  Code  Lc  ota-client.o [1]
continueScanRequest     0x08013025    0x56  Code  Lc  zdo-channel.o [20]
convertUserNumberAreaToInternalArea
                        0x08003fb3    0x14  Code  Lc  print.o [1]
copyAllTokens           0x08015c55    0x6a  Code  Lc  token-cache.o [20]
copyOrLookupEui64       0x0801fac5    0x20  Code  Lc  zdo-cli.o [1]
copyTokensToOtherPage   0x08010a1b   0x1bc  Code  Lc  sim-eeprom-internal.o [12]
countIncremarks         0x08010dff    0x48  Code  Lc  sim-eeprom-internal.o [12]
createBinding           0x0801d9cb    0xba  Code  Lc  ez-mode.o [1]
cryptInternal           0x08017f19   0x25c  Code  Lc  aps-encryption.o [18]
cryptoStatus            0x20002fb4     0x1  Data  Lc  crypto-state.o [1]
cstackMemory            0x200011b0   0x960  Data  Gb  cstartup-iar-common.o [1]
currentBootloadState    0x20002148     0x1  Data  Lc  ota-client.o [1]
currentDownloadFile     0x20002150    0x10  Data  Lc  ota-client.o [1]
currentDuration         0x20001ba2     0x2  Data  Gb  buzzer.o [1]
currentEraseOffset      0x20002964     0x4  Data  Lc  ota-storage-eeprom-page-erase.o [1]
currentIdentifyingAddress
                        0x200028b0     0x2  Data  Lc  ez-mode.o [1]
currentIdentifyingEndpoint
                        0x200028a0     0x1  Data  Lc  ez-mode.o [1]
currentJitFlag          0x20002370     0x2  Data  Lc  jit.o [20]
currentReceiveChannel   0x20002cd1     0x1  Data  Lc  phy.o [20]
currentTune             0x20001ba4     0x4  Data  Gb  buzzer.o [1]
customVerifyStatus      0x2000214e     0x1  Data  Lc  ota-client.o [1]
dataCache               0x2000208c     0x1  Data  Lc  form-and-join-node-adapter.o [1]
dataContents            0x200028bc     0x4  Data  Lc  form-and-join.o [1]
deactivate              0x0801dd13     0x6  Code  Lc  level-control.o [1]
debugChannel            0x20002ff0    0x10  Data  Lc  debug-jtag.o [20]
debugTraceOn            0x20002fd6     0x1  Data  Lc  debug.o [20]
decodeShortDestination  0x0801ba8d    0x46  Code  Lc  mac-header.o [20]
defaultBase             0x20001fd8     0x1  Data  Lc  command-interpreter2.o [1]
defaultDecision         0x20002faf     0x1  Data  Lc  af-trust-center.o [1]
defaultSleepControl     0x20002fc0     0x1  Data  Lc  idle-sleep.o [1]
deferredPanChange       0x08017637    0x3c  Code  Lc  management.o [20]
delayCount              0x20002e18     0x1  Data  Lc  retry.o [20]
determinePageSizeLog    0x0801c871    0x1a  Code  Lc  ota-storage-eeprom-page-erase.o [1]
deviceIsCoordinator     0x20002318     0x1  Data  Lc  phy-common.o [20]
discoveryTargetNodeId   0x20002144     0x2  Data  Lc  option-cli.o [1]
dispatchZclMessage      0x08005a1f    0x68  Code  Lc  util.o [1]
downloadAndVerifyFinish
                        0x08016687    0x58  Code  Lc  ota-client.o [1]
dropJoinBeacon          0x0800b72b    0x1a  Code  Lc  association.o [20]
eblConfig               0x200025cc    0xd4  Data  Gb  bootloader-interface-app.o [1]
echoCommand             0x08016bf9    0x1c  Code  Gb  core-cli.o [1]
edCcaThreshold          0x2000231b     0x1  Data  Lc  phy-common.o [20]
eepromInitialized       0x2000200c     0x1  Data  Lc  eeprom.o [1]
eepromState             0x20002540    0x8c  Data  Gb  bootloader-interface-app.o [1]
efficiency              0x0800289c     0xc  Data  Gb  IcontrolDimmableLampApp.o [1]
emActiveAlwaysOnNetworkFound
                        0x08007851     0x4  Code  Gb  ember-multi-network-stub.o [14]
emActiveScanDuration    0x20002249     0x1  Data  Gb  association.o [20]
emActiveTaskCount       0x20002fce     0x1  Data  Lc  event-control.o [20]
emAddApsFrame           0x08017b7f    0xe0  Code  Gb  zigbee-packet-header.o [20]
emAddBeaconPayload      0x0800c7b9    0xa0  Code  Gb  association.o [20]
emAddBlacklistedId      0x0801925b    0x7e  Code  Gb  random-id.o [20]
emAddBroadcastTableEntry
                        0x0801291f    0x4c  Code  Gb  broadcast.o [20]
emAddCurrentNetworkToPollingQueue
                        0x080078c5     0x2  Code  Gb  ember-multi-network-stub.o [14]
emAddNeighborGuaranteed
                        0x080141c3    0x66  Code  Gb  neighbor.o [20]
emAddPendingAckedMessage
                        0x080132cd    0x5e  Code  Gb  aps-retry.o [20]
emAddRejoinedChild      0x08013e19     0x2  Code  Gb  child-stub.o [20]
emAddTrustCenterRoute   0x08012a53     0x2  Code  Gb  leaf-routing-stub.o [20]
emAddTunnelledApsHeader
                        0x08019f27    0x3e  Code  Gb  trust-center-util.o [18]
emAddUnicastTableEntry  0x0801b415    0x26  Code  Gb  unicast-table.o [20]
emAddressTable          0x2000206c     0x4  Data  Gb  ember-configuration.o [1]
emAddressTableSize      0x20002068     0x1  Data  Gb  ember-configuration.o [1]
emAesEncrypt            0x0801a241    0x22  Code  Gb  aes.o [20]
emAfAbortPageRequest    0x0801c7b7     0x2  Code  Gb  ota-client-page-request.o [1]
emAfAppEventContext     0x20001b6c    0x30  Data  Gb  af-event.o [1]
emAfAppEventContextLength
                        0x20001b68     0x2  Data  Gb  af-event.o [1]
emAfApsFrameClusterIdSetup
                        0x0801f2dd     0xe  Code  Gb  zcl-cli.o [1]
emAfApsFrameEndpointSetup
                        0x0801f2c9    0x14  Code  Gb  zcl-cli.o [1]
emAfApsSecurityOff      0x20002fcb     0x1  Data  Gb  util.o [1]
emAfAssertNetworkIndexStackIsEmpty
                        0x0800746b     0x2  Code  Gb  multi-network.o [1]
emAfCalculatePercentage
                        0x0801c857    0x18  Code  Gb  ota-common.o [1]
emAfCallInits           0x080034bb    0x26  Code  Gb  attribute-storage.o [1]
emAfClearLinkKeyTable   0x08014e8f    0x12  Code  Gb  af-security-common.o [1]
emAfCliBsendCommand     0x0801f7bd    0x56  Code  Gb  zcl-cli.o [1]
emAfCliInfoCommand      0x08016b7b    0x58  Code  Gb  core-cli.o [1]
emAfCliNetworkIndex     0x20002fc2     0x1  Data  Gb  network-cli.o [1]
emAfCliRawCommand       0x0801f33f    0x44  Code  Gb  zcl-cli.o [1]
emAfCliReadCommand      0x0801f8f7    0x46  Code  Gb  zcl-cli.o [1]
emAfCliSendCommand      0x0801f753    0x62  Code  Gb  zcl-cli.o [1]
emAfCliServiceDiscoveryCallback
                        0x0801edd9     0x2  Code  Gb  option-cli.o [1]
emAfCliTimesyncCommand  0x0801f813    0x22  Code  Gb  zcl-cli.o [1]
emAfCliVersionCommand   0x0800448f    0x18  Code  Gb  af-main-soc.o [1]
emAfCliWriteCommand     0x0801f94d    0x8a  Code  Gb  zcl-cli.o [1]
emAfClusterAttributeChangedCallback
                        0x080033e3    0x48  Code  Gb  attribute-storage.o [1]
emAfClusterPreAttributeChangedCallback
                        0x0800342b    0x4e  Code  Gb  attribute-storage.o [1]
emAfCommandApsFrame     0x2000272c     0x4  Data  Gb  client-api.o [1]
emAfCopyMessageIntoRamBuffer
                        0x0800434d    0x26  Code  Gb  af-main-soc.o [1]
emAfCurrentCommand      0x2000221c     0x4  Data  Gb  util.o [1]
emAfCurrentNetwork      0x20002948     0x4  Data  Gb  multi-network.o [1]
emAfEepromDataPrintCommand
                        0x0801e683    0x22  Code  Gb  eeprom-cli.o [1]
emAfEepromInfoCommand   0x0801e6a7    0x14  Code  Gb  eeprom-cli.o [1]
emAfEepromSavedPartialWrites
                        0x20001ffc    0x10  Data  Gb  eeprom.o [1]
emAfEepromStatusCommand
                        0x0801e6a5     0x2  Code  Gb  eeprom-cli.o [1]
emAfEnablePollCompletedCallback
                        0x20002fbd     0x1  Data  Gb  end-device-support.o [1]
emAfEndpoints           0x20002480    0x10  Data  Gb  attribute-storage.o [1]
emAfEvents              0x08007668    0x90  Data  Gb  af-event.o [1]
emAfForceEndDeviceToStayAwake
                        0x20002fbf     0x1  Data  Gb  idle-sleep.o [1]
emAfGetCryptoStatus     0x0800e695     0x6  Code  Gb  crypto-state.o [1]
emAfGetCurrentPageRequestStatus
                        0x0801c7ab     0x4  Code  Gb  ota-client-page-request.o [1]
emAfGetCurrentSecurityProfileData
                        0x08014ea1    0x1a  Code  Gb  af-security-common.o [1]
emAfGetEblStartOffset   0x0801cb7b     0x4  Code  Gb  ota-storage-eeprom.o [1]
emAfGetFinishedPageRequestOffset
                        0x0801c7b3     0x4  Code  Gb  ota-client-page-request.o [1]
emAfGetManufacturerCodeForAttribute
                        0x08003531    0x22  Code  Gb  attribute-storage.o [1]
emAfGetManufacturerCodeForCluster
                        0x08003553    0x16  Code  Gb  attribute-storage.o [1]
emAfGetPageRequestMissedPacketDelayMs
                        0x0801c7af     0x4  Code  Gb  ota-client-page-request.o [1]
emAfGroupsServerCliPrint
                        0x08020087    0x14  Code  Gb  groups-server-cli.o [1]
emAfHandlingPageRequestClient
                        0x0801c79d     0x4  Code  Gb  ota-client-page-request.o [1]
emAfIncomingMessageHandler
                        0x080086c9    0x82  Code  Gb  af-main-common.o [1]
emAfInitEvents          0x0800750d    0x16  Code  Gb  af-event.o [1]
emAfInitPageRequestClient
                        0x0801c799     0x4  Code  Gb  ota-client-page-request.o [1]
emAfInitializeMessageSentCallbackArray
                        0x080083c1    0x1c  Code  Gb  af-main-common.o [1]
emAfInitializeNetworkIndexStack
                        0x08007441     0xa  Code  Gb  multi-network.o [1]
emAfLoadAttributeDefaults
                        0x08003957   0x11a  Code  Gb  attribute-storage.o [1]
emAfLoadAttributesFromTokens
                        0x08003a81    0x58  Code  Gb  attribute-storage.o [1]
emAfMatchAttribute      0x08003595    0x26  Code  Gb  attribute-storage.o [1]
emAfMatchCluster        0x08003569    0x2c  Code  Gb  attribute-storage.o [1]
emAfMessageSentHandler  0x0800874b    0xa0  Code  Gb  af-main-common.o [1]
emAfNetworkInit         0x0800889b    0x46  Code  Gb  af-main-common.o [1]
emAfNetworks            0x080201fc     0x4  Data  Gb  attribute-storage.o [1]
emAfNextMissedBlockRequestOffset
                        0x0801c7a7     0x4  Code  Gb  ota-client-page-request.o [1]
emAfNoteReceivedBlockForPageRequestClient
                        0x0801c7a3     0x4  Code  Gb  ota-client-page-request.o [1]
emAfOkToIdleOrSleep     0x0801a2e3    0x3c  Code  Gb  idle-sleep.o [1]
emAfOtaClientPrintState
                        0x08016073     0x2  Code  Gb  ota-client.o [1]
emAfOtaClientServiceDiscoveryCallback
                        0x08016117    0x7a  Code  Gb  ota-client.o [1]
emAfOtaClientStop       0x08016053    0x20  Code  Gb  ota-client.o [1]
emAfOtaClientStopDownloadPercentage
                        0x20002170     0x1  Data  Gb  ota-client.o [1]
emAfOtaFindImageIdByIndex
                        0x0801f109    0x40  Code  Gb  ota-storage-common-cli.o [1]
emAfOtaImageDelete      0x0801f149    0x1c  Code  Gb  ota-storage-common-cli.o [1]
emAfOtaImageSignatureVerify
                        0x0801cecd     0x4  Code  Gb  ota-client-signature-verify.o [1]
emAfOtaMinMessageLengths
                        0x08025680     0xc  Data  Gb  ota-common.o [1]
emAfOtaParseImageIdFromMessage
                        0x0801c7b9    0x3a  Code  Gb  ota-common.o [1]
emAfOtaPrintAllImages   0x0801f0c1    0x48  Code  Gb  ota-storage-common-cli.o [1]
emAfOtaReloadStorageDevice
                        0x0801f165     0x4  Code  Gb  ota-storage-common-cli.o [1]
emAfOtaStorageCheckDownloadMetaData
                        0x0801cc47    0x2a  Code  Gb  ota-storage-eeprom.o [1]
emAfOtaStorageDataPrint
                        0x0801f169    0x5e  Code  Gb  ota-storage-common-cli.o [1]
emAfOtaStorageDriverGetRealOffset
                        0x0801cba5    0x32  Code  Gb  ota-storage-eeprom.o [1]
emAfOtaStorageDriverInfoPrint
                        0x0801cd07     0xe  Code  Gb  ota-storage-eeprom.o [1]
emAfOtaStorageEepromInit
                        0x0801c937    0x6e  Code  Gb  ota-storage-eeprom-page-erase.o [1]
emAfOtaStorageGetHeaderLengthAndImageSize
                        0x0801cd89    0x22  Code  Gb  ota-storage-common.o [1]
emAfOtaStorageGetImageIdFromHeader
                        0x0801cd45    0x44  Code  Gb  ota-storage-common.o [1]
emAfOtaStorageGetTagOffsetAndSize
                        0x0801cdab    0x6e  Code  Gb  ota-storage-common.o [1]
emAfOtaStorageInfoPrint
                        0x0801c6ed     0x4  Code  Gb  ota-storage-simple.o [1]
emAfOtaStorageReadAllTagInfo
                        0x0801ce19    0x8e  Code  Gb  ota-storage-common.o [1]
emAfOtaStorageReadInt32uFromEeprom
                        0x0801cb21    0x28  Code  Gb  ota-storage-eeprom.o [1]
emAfOtaStorageWriteDownloadMetaData
                        0x0801cc71    0x16  Code  Gb  ota-storage-eeprom.o [1]
emAfOtaStorageWriteInt32uToEeprom
                        0x0801cb49    0x32  Code  Gb  ota-storage-eeprom.o [1]
emAfPageRequestTimerExpired
                        0x0801c7a1     0x2  Code  Gb  ota-client-page-request.o [1]
emAfParseAndPrintVersion
                        0x080089b5    0x18  Code  Gb  af-main-common.o [1]
emAfPermitJoin          0x0800862b    0x2e  Code  Gb  af-main-common.o [1]
emAfPluginIdentifyCliPrint
                        0x08004a7b     0x2  Code  Gb  identify-cli.o [1]
emAfPluginReportingCliAdd
                        0x080200c9    0x60  Code  Gb  reporting-cli.o [1]
emAfPluginReportingCliClear
                        0x080200b3     0x4  Code  Gb  reporting-cli.o [1]
emAfPluginReportingCliPrint
                        0x0802009b    0x18  Code  Gb  reporting-cli.o [1]
emAfPluginReportingCliRemove
                        0x080200b7    0x12  Code  Gb  reporting-cli.o [1]
emAfPluginReportingGetEntry
                        0x08005f65    0x14  Code  Gb  reporting.o [1]
emAfPluginReportingRemoveEntry
                        0x0800642d    0x16  Code  Gb  reporting.o [1]
emAfPluginReportingSetEntry
                        0x08005f79     0xc  Code  Gb  reporting.o [1]
emAfPluginScenesServerPrintInfo
                        0x0801a449    0x1e  Code  Gb  scenes.o [1]
emAfPollCompleteHandler
                        0x0801a26d    0x70  Code  Gb  polling-common.o [1]
emAfPollingStates       0x2000298c     0x8  Data  Gb  polling-common.o [1]
emAfPrintBuffer         0x0801e889    0x40  Code  Lc  print-formatter.o [1]
emAfPrintEzspEndpointFlags
                        0x08004525     0x2  Code  Gb  af-main-soc.o [1]
emAfPrintInternalVarArg
                        0x08003fc7    0x2a  Code  Lc  print.o [1]
emAfPrintPercentageSetStartAndEnd
                        0x0801c835    0x12  Code  Gb  ota-common.o [1]
emAfPrintPercentageUpdate
                        0x0801c847    0x10  Code  Gb  ota-common.o [1]
emAfPrintStatus         0x080085ff    0x2c  Code  Gb  af-main-common.o [1]
emAfProcessClusterSpecificCommand
                        0x0800eaa1    0x42  Code  Gb  process-cluster-message.o [1]
emAfProcessGlobalCommand
                        0x0800eaf9   0x3d0  Code  Gb  process-global-message.o [1]
emAfProcessZdo          0x08008659    0x70  Code  Gb  af-main-common.o [1]
emAfReadAttribute       0x08002e25    0x44  Code  Gb  attribute-table.o [1]
emAfReadOrWriteAttribute
                        0x080035bb   0x194  Code  Gb  attribute-storage.o [1]
emAfResponseLengthPtr   0x20002728     0x4  Data  Gb  client-api.o [1]
emAfSaveAttributeToToken
                        0x08003ad9    0x5e  Code  Gb  attribute-storage.o [1]
emAfScheduleMoveEvent   0x08015d21    0x1e  Code  Gb  end-device-move.o [1]
emAfSecurityProfileData
                        0x08014ecc    0x1c  Data  Gb  af-security-common.o [1]
emAfSend                0x080043f9    0x68  Code  Gb  af-main-soc.o [1]
emAfSendImageBlockRequestTest
                        0x08016a05    0x2c  Code  Gb  ota-client.o [1]
emAfSendMatchDescriptor
                        0x0801c387    0x56  Code  Gb  service-discovery-soc.o [1]
emAfServiceDiscoveryComplete0
                        0x08014d0b     0x4  Code  Gb  service-discovery-common.o [1]
emAfServiceDiscoveryEventControls
                        0x20002af4     0x8  Data  Gb  service-discovery-common.o [1]
emAfServiceDiscoveryIncoming
                        0x08014d2f   0x11e  Code  Gb  service-discovery-common.o [1]
emAfSetCryptoStatus     0x0800e69b     0x6  Code  Gb  crypto-state.o [1]
emAfSetPageRequest      0x08016a31     0x6  Code  Gb  ota-client.o [1]
emAfStackStatusHandler  0x080087f9    0xa2  Code  Gb  af-main-common.o [1]
emAfStayAwakeWhenNotJoined
                        0x20002fbe     0x1  Data  Gb  idle-sleep.o [1]
emAfStorageEepromUpdateDownloadOffset
                        0x0801ca0d    0x62  Code  Gb  ota-storage-eeprom-page-erase.o [1]
emAfSyncingTime         0x20002fc3     0x1  Data  Gb  process-global-message.o [1]
emAfTaskId              0x20002fae     0x1  Data  Gb  af-event.o [1]
emAfTestMeterGetProfiles
                        0x0801e885     0x4  Code  Gb  simple-metering-test.o [1]
emAfTestMeterInit       0x0801e881     0x2  Code  Gb  simple-metering-test.o [1]
emAfTestMeterTick       0x0801e883     0x2  Code  Gb  simple-metering-test.o [1]
emAfWriteAttribute      0x08002cb1   0x150  Code  Gb  attribute-table.o [1]
emAfZclBuffer           0x20002724     0x4  Data  Gb  client-api.o [1]
emAfZclBufferLen        0x20002720     0x2  Data  Gb  client-api.o [1]
emAgeBlacklistedIds     0x0801930f    0x1c  Code  Gb  random-id.o [20]
emAgeBroadcastTable     0x080128c5    0x3e  Code  Gb  broadcast.o [20]
emAgeChildren           0x08012d2d   0x108  Code  Gb  child-aging.o [20]
emAgeChildrenAllNetworks
                        0x08012e35    0x22  Code  Gb  child-aging.o [20]
emAgeRouteTables        0x080129b1     0x2  Code  Gb  leaf-routing-stub.o [20]
emAlarmLibraryStatus    0x08025ae6     0x1  Data  Gb  alarm-stub.o [3]
emAllNetworksInit       0x080112fd    0x48  Code  Gb  network.o [20]
emAllowRelay            0x20002024     0x1  Data  Gb  ember-configuration.o [1]
emAmMulticastMember     0x0800a815    0x48  Code  Gb  address-table.o [20]
emAmNetworkManager      0x080176b5    0x26  Code  Gb  management.o [20]
emAnyChildHasFlagsSet   0x08013e11     0x4  Code  Gb  child-stub.o [20]
emAppZdoConfigurationFlags
                        0x20002fb8     0x1  Data  Gb  ember-configuration.o [1]
emAppendToLinkedBuffers
                        0x0800b2a9    0x3c  Code  Gb  packet-buffer.o [20]
emApplicationCheckIncomingQueue
                        0x08009e8d    0x2e  Code  Gb  application-support.o [20]
emApplicationProcessIncoming
                        0x08009ebb   0x16a  Code  Gb  application-support.o [20]
emApplicationProcessIncomingAck
                        0x0801332b    0xe6  Code  Gb  aps-retry.o [20]
emApplicationSecurityMessageHandler
                        0x080150a7   0x1bc  Code  Gb  aps-security.o [18]
emApsBaseFrameSize      0x080179eb    0x30  Code  Gb  zigbee-packet-header.o [20]
emApsCrypt              0x08018175    0x30  Code  Gb  aps-encryption.o [18]
emApsExtendedHeaderSize
                        0x080179d1    0x1a  Code  Gb  zigbee-packet-header.o [20]
emApsFrameSize          0x08017a1b    0x38  Code  Gb  zigbee-packet-header.o [20]
emApsFrameToApsStruct   0x08017a73   0x10c  Code  Gb  zigbee-packet-header.o [20]
emApsHeaderSize         0x080179b5    0x1c  Code  Gb  zigbee-packet-header.o [20]
emApsPurge              0x0801327d    0x2e  Code  Gb  aps-retry.o [20]
emApsUnicastMessageData
                        0x20002074     0x4  Data  Gb  ember-configuration.o [1]
emAreKeysAuthorizedByDefault
                        0x08013b77     0x4  Code  Gb  cbke-crypto-engine-stub.o [9]
emAssertIsZigbeeProNetwork
                        0x08009a57    0x1a  Code  Gb  ember-stack-common.o [20]
emAssociationHandler    0x0800c093   0x22a  Code  Gb  association.o [20]
emAssociationInProgress
                        0x0800784d     0x4  Code  Gb  ember-multi-network-stub.o [14]
emAssociationRequestNotSent
                        0x0800c387     0xa  Code  Gb  association.o [20]
emAssumeSymmetricLink   0x08014229    0x28  Code  Gb  neighbor.o [20]
emAuthenticatedRoutingOnly
                        0x20002fe1     0x1  Data  Gb  high-security-stub.o [18]
emAuxiliaryZdoRequestHandler
                        0x0801d02d   0x7c0  Code  Gb  zigbee-device.o [20]
emAvailableMemory       0x20000000   0xd68  Data  Gb  ember-configuration.o [1]
emAvailableStackBuffer  0x20002294     0x1  Data  Gb  zigbee-stack.o [20]
emBindingFlags          0x20002064     0x4  Data  Gb  ember-configuration.o [1]
emBindingRemoteNode     0x2000205c     0x4  Data  Gb  ember-configuration.o [1]
emBindingTableLibraryStatus
                        0x080255b3     0x1  Data  Gb  binding-table.o [4]
emBroadcastAgeCutoffIndexes
                        0x20002f14     0x2  Data  Gb  broadcast.o [20]
emBroadcastHead         0x20002f10     0x1  Data  Gb  broadcast.o [20]
emBroadcastTable        0x20002f18    0x5c  Data  Gb  broadcast.o [20]
emBroadcastTableIsFull  0x08012903    0x1c  Code  Gb  broadcast.o [20]
emCalPadsEvent          0x20002f74     0x8  Data  Gb  cal-pads.o [20]
emCalPadsEventHandler   0x08020011    0x18  Code  Gb  cal-pads.o [20]
emCalculateMic          0x0801b599   0x10a  Code  Gb  crypto.o [20]
emCallCounterHandler    0x080078df     0x4  Code  Gb  ember-multi-network-stub.o [14]
emCallIncomingMessageHandler
                        0x0800a3b1    0xb0  Code  Gb  zigbee-dispatch.o [20]
emCallStackStatusHandler
                        0x080078db     0x4  Code  Gb  ember-multi-network-stub.o [14]
emCallZigbeeKeyEstablishmentHandler
                        0x080078d7     0x4  Code  Gb  ember-multi-network-stub.o [14]
emCancelJitMessage      0x080100a7    0x28  Code  Gb  mac-arbiter.o [20]
emCapabilityBytes       0x08025aac     0x8  Data  Gb  leaf-routing-stub.o [20]
emCbke283k1LibraryStatus
                        0x08025ae8     0x1  Data  Gb  cbke-crypto-engine-283k1-stub.o [6]
emCbkeCoreLibraryStatus
                        0x08025ae1     0x1  Data  Gb  cbke-crypto-engine-stub.o [9]
emCbkeDsaLibraryStatus  0x08025ae4     0x1  Data  Gb  cbke-crypto-engine-dsa-sign-stub.o [7]
emCbkeDsaVerifyLibraryStatus
                        0x08025ae9     0x1  Data  Gb  cbke-crypto-engine-dsa-verify-stub.o [8]
emCbkeIsIdle            0x08013b71     0x4  Code  Gb  cbke-crypto-engine-stub.o [9]
emCbkeLibraryStatus     0x08025ae7     0x1  Data  Gb  cbke-crypto-engine-163k1-stub.o [5]
emCbkeTick              0x08013b75     0x2  Code  Gb  cbke-crypto-engine-stub.o [9]
emChannelChangeEvent    0x20002340     0x8  Data  Gb  zdo-channel.o [20]
emChannelChangeEventHandler
                        0x080131c9    0x44  Code  Gb  zdo-channel.o [20]
emChannelSettings       0x0800972c    0x40  Data  Gb  analogue.o [20]
emCheckAdditionalPendingDataIsr
                        0x08012eb7     0x4  Code  Gb  mac-indirect-stub.o [20]
emCheckAvailableMemory  0x08010281     0x2  Code  Gb  ember-configuration.o [1]
emCheckChannelStatus    0x08012ec5    0x84  Code  Gb  zdo-channel.o [20]
emCheckIncomingFrameCounter
                        0x08014a13    0x20  Code  Gb  zigbee-neighbor.o [20]
emCheckNetworkManagerId
                        0x08012835     0x4  Code  Gb  zll-stubs.o [21]
emCheckOrSetTrustCenterEui64
                        0x080146e5    0x42  Code  Gb  aps-keys.o [18]
emCheckRadioEvent       0x20002f7c     0x8  Data  Gb  mac-em250.o [20]
emCheckRadioEventHandler
                        0x0801a12f    0x12  Code  Gb  mac-em250.o [20]
emChildExtendedTimeout  0x0800a78f    0x22  Code  Gb  address-table.o [20]
emChildIdTable          0x20002028     0x4  Data  Gb  ember-configuration.o [1]
emChildInit             0x08013e0b     0x2  Code  Gb  child-stub.o [20]
emChildStatus           0x20002030     0x4  Data  Gb  ember-configuration.o [1]
emChildTimers           0x20002034     0x4  Data  Gb  ember-configuration.o [1]
emChooseRandomNeighbor  0x080143f1    0x6c  Code  Gb  neighbor.o [20]
emClearSecurityData     0x08015abd    0x1a  Code  Gb  aps-security.o [18]
emClearUnicastTable     0x0801b43b     0xa  Code  Gb  unicast-table.o [20]
emCopyToNormalizedBuffers
                        0x0800b245    0x64  Code  Gb  packet-buffer.o [20]
emCostDivision          0x0800f141     0x8  Code  Gb  phy-common.o [20]
emCostDivisions         0x0800f980     0x8  Data  Gb  phy-common.o [20]
emCsmaTransmit          0x08019fe9    0x2e  Code  Gb  mac-em250.o [20]
emCurrentApsStruct      0x20002cac     0x4  Data  Gb  zigbee-dispatch.o [20]
emCurrentBindingIndex   0x20002fd0     0x1  Data  Gb  zigbee-dispatch.o [20]
emCurrentChannel        0x20002fde     0x1  Data  Gb  network.o [20]
emCurrentLqi            0x20002fdc     0x1  Data  Gb  network.o [20]
emCurrentMessageStatus  0x20002ca8     0x1  Data  Gb  zigbee-dispatch.o [20]
emCurrentNetwork        0x20002ca0     0x4  Data  Gb  ember-multi-network-stub.o [14]
emCurrentNetworkInit    0x08011345    0x42  Code  Gb  network.o [20]
emCurrentRadioNetwork   0x20002ca4     0x4  Data  Gb  ember-multi-network-stub.o [14]
emCurrentRadioNetworkEvent
                        0x20002c90     0x8  Data  Gb  ember-multi-network-stub.o [14]
emCurrentRadioNetworkHandler
                        0x080077c7    0x24  Code  Gb  ember-multi-network-stub.o [14]
emCurrentRssi           0x20002fdd     0x1  Data  Gb  network.o [20]
emCurrentSender         0x20002caa     0x2  Data  Gb  zigbee-dispatch.o [20]
emCurrentSenderEui64    0x20002cb0     0x4  Data  Gb  zigbee-dispatch.o [20]
emCurrentZdoRequestStatus
                        0x20002fd3     0x1  Data  Gb  application-support.o [20]
emCustomMacFilterMatchList
                        0x20002f98     0x4  Data  Gb  mac-header.o [20]
emDebugAddInitialFraming
                        0x0801104f    0x18  Code  Gb  debug-jtag.o [20]
emDebugBinaryFormat     0x0800db3f    0x10  Code  Gb  debug.o [20]
emDebugClearStats       0x0800dc37     0xa  Code  Gb  debug.o [20]
emDebugInit             0x08010fd9    0x22  Code  Gb  debug-jtag.o [20]
emDebugInternalBinaryPrintf
                        0x0800dc4f   0x174  Code  Lc  debug.o [20]
emDebugMemoryDump       0x0800db9f    0x36  Code  Lc  debug.o [20]
emDebugPowerUp          0x08010ffb    0x48  Code  Gb  debug-jtag.o [20]
emDebugProcessIncoming  0x0800ddd3    0xc2  Code  Gb  debug.o [20]
emDebugReceiveTick      0x0800daf5    0x40  Code  Gb  debug.o [20]
emDebugResetInfo        0x0800db4f    0x50  Code  Gb  debug.o [20]
emDebugRxQueue          0x2000229c     0x4  Data  Gb  debug.o [20]
emDebugStats            0x0800dc41     0xe  Code  Gb  debug.o [20]
emDecrementPanConflictMeter
                        0x0801753d     0xc  Code  Gb  management.o [20]
emDefaultMacMaxAckRetries
                        0x20002363     0x1  Data  Gb  mac-em250.o [20]
emDefaultSecurityLevel  0x20002082     0x1  Data  Gb  ember-configuration.o [1]
emDefaultStackProfile   0x20002081     0x1  Data  Gb  ember-configuration.o [1]
emDelayDeviceAnnouncement
                        0x08018caf     0x4  Code  Gb  high-security-stub.o [18]
emDeleteRouteTableEntry
                        0x080129a1     0x2  Code  Gb  leaf-routing-stub.o [20]
emDequePollingNetwork   0x080078c7     0x4  Code  Gb  ember-multi-network-stub.o [14]
emDescriptorCapability  0x2000227c     0x1  Data  Gb  zigbee-device.o [20]
emDetectIdConflict      0x0801915f    0x98  Code  Gb  random-id.o [20]
emDeviceJoiningSecurityHandler
                        0x08019af9    0xbe  Code  Gb  trust-center-util.o [18]
emDoesSecurityPolicyAllowAppKeyRequests
                        0x08013b7b     0x4  Code  Gb  cbke-crypto-engine-stub.o [9]
emDroppedAckStallWorkaround
                        0x0800f109    0x38  Code  Gb  phy-common.o [20]
emDsaSignAndSendMessage
                        0x080176f1     0x4  Code  Gb  cbke-crypto-engine-dsa-sign-stub.o [7]
emEnableApplicationCurrentNetwork
                        0x0800783f     0x2  Code  Gb  ember-multi-network-stub.o [14]
emEnableRadioNetworkSwitch
                        0x08007833     0x2  Code  Gb  ember-multi-network-stub.o [14]
emEncryptBytes          0x0801b77b    0x48  Code  Gb  crypto.o [20]
emEncryptPayload        0x0801b6a3    0xd2  Code  Gb  crypto.o [20]
emEndDeviceBindLibraryStatus
                        0x08025ae3     0x1  Data  Gb  end-device-bind-stub.o [11]
emEndDeviceChildCount   0x20002fd1     0x1  Data  Gb  child-stub.o [20]
emEntityAuthenticationEvent
                        0x20002e10     0x8  Data  Gb  high-security-stub.o [18]
emEntityAuthenticationEventHandler
                        0x08018cab     0x2  Code  Gb  high-security-stub.o [18]
emEraseChild            0x08013e3d     0x2  Code  Gb  child-stub.o [20]
emEraseChildTable       0x08013e3f     0x2  Code  Gb  child-stub.o [20]
emEraseChildTableOnJoin
                        0x20002248     0x1  Data  Gb  association.o [20]
emEventControlGetRemainingMS
                        0x080030c5    0x28  Code  Gb  event-control.o [20]
emEventControlSetActive
                        0x0800306d    0x16  Code  Gb  event-control.o [20]
emEventControlSetDelayMS
                        0x08003083     0xe  Code  Gb  event-control.o [20]
emEventControlSetDelayMinutes
                        0x080030b3    0x12  Code  Gb  event-control.o [20]
emEventControlSetDelayQS
                        0x08003091    0x10  Code  Gb  event-control.o [20]
emExtendJoinTimeout     0x0800b6f9    0x32  Code  Gb  association.o [20]
emFastLinkStatusCount   0x20002fdf     0x1  Data  Gb  neighbor.o [20]
emFetchInt32u           0x0801ba05    0x28  Code  Gb  byte-utilities.o [20]
emFillRouteCommandData  0x08012a4f     0x4  Code  Gb  leaf-routing-stub.o [20]
emFindAddressByEui64    0x0800a667    0x82  Code  Gb  address-table.o [20]
emFindAddressByNodeId   0x0800a6e9    0xa6  Code  Gb  address-table.o [20]
emFindBroadcastTableEntry
                        0x08012887     0x4  Code  Gb  broadcast.o [20]
emFindChild             0x08013e1d     0x2  Code  Gb  child-stub.o [20]
emFindChildIndex        0x08013e15     0x4  Code  Gb  child-stub.o [20]
emFindMulticastBinding  0x0800adbd    0x54  Code  Gb  binding-table.o [4]
emFindNeighborByEui64   0x08013ecd    0x22  Code  Gb  neighbor.o [20]
emFindNeighborIndexByEui64
                        0x08013eef    0x38  Code  Gb  neighbor.o [20]
emFindOrAddNeighbor     0x08014111    0x70  Code  Gb  neighbor.o [20]
emFindRouteTableEntry   0x0801299d     0x4  Code  Gb  leaf-routing-stub.o [20]
emFindUnicastBinding    0x0800ae17    0x8c  Code  Gb  binding-table.o [4]
emFindZdoPayload        0x08018857    0x28  Code  Gb  zigbee-device-util.o [20]
emFinishAdcTempReading  0x0800d9c9    0x58  Code  Gb  phy.o [20]
emFinishCalibrateCurrentChannel
                        0x08009359   0x218  Code  Gb  analogue.o [20]
emFinishJoinFailure     0x0800b88b    0x2c  Code  Gb  association.o [20]
emFinishRadioSetChannel
                        0x08009581    0x5c  Code  Gb  analogue.o [20]
emForgetBindingShortId  0x0800ab85    0x46  Code  Gb  binding-table.o [4]
emForgetShortId         0x0800a5fb    0x3a  Code  Gb  address-table.o [20]
emFragmentDelayMs       0x20002fb6     0x1  Data  Gb  ember-configuration.o [1]
emFrameCounterIndex     0x08014981    0x24  Code  Gb  zigbee-neighbor.o [20]
emFrameCounterIndexFromEui64
                        0x08014a41    0xc2  Code  Gb  zigbee-neighbor.o [20]
emFrameCountersTable    0x20002058     0x4  Data  Gb  ember-configuration.o [1]
emGetActiveAlwaysOnNetworkIndex
                        0x080077eb    0x1a  Code  Gb  ember-multi-network-stub.o [14]
emGetActiveCoordinatorOrRouterNetworkIndex
                        0x08007855    0x1c  Code  Gb  ember-multi-network-stub.o [14]
emGetApplicationPayload
                        0x080176f5    0x96  Code  Gb  zigbee-packet-header.o [20]
emGetApsFrameCounter    0x08017edb     0x8  Code  Gb  aps-encryption.o [18]
emGetChildCapabilities  0x08013e33     0x4  Code  Gb  child-stub.o [20]
emGetCurrentNetworkIndex
                        0x08007841     0x4  Code  Gb  ember-multi-network-stub.o [14]
emGetCurrentRadioNetworkIndex
                        0x08007845     0x4  Code  Gb  ember-multi-network-stub.o [14]
emGetKeyFromInstallCode
                        0x0801c3dd     0x4  Code  Gb  install-code-stub.o [13]
emGetKeyTableEntry      0x0801bfdd    0x8e  Code  Gb  aps-keys-full.o [19]
emGetLinkKey            0x08014727   0x100  Code  Gb  aps-keys.o [18]
emGetLocalCapabilities  0x0800cb07    0x16  Code  Gb  association.o [20]
emGetMacDataAddress     0x08017d0f    0x24  Code  Gb  packet-header.o [20]
emGetMacTimer           0x0800d95f     0x6  Code  Gb  phy.o [20]
emGetNetworkKeys        0x08015a9d    0x20  Code  Gb  aps-security.o [18]
emGetNetworkManagementState
                        0x080173bb    0x28  Code  Gb  management.o [20]
emGetNextScanChannel    0x08012813     0x6  Code  Gb  zll-stubs.o [21]
emGetNwkUpdateId        0x080173e3    0x10  Code  Gb  management.o [20]
emGetPhyRadioChannel    0x080095ed     0x6  Code  Gb  analogue.o [20]
emGetPhyRadioPower      0x080095f3     0x8  Code  Gb  analogue.o [20]
emGetPreconfiguredKey   0x08014657    0x1c  Code  Gb  aps-keys.o [18]
emGetRadioNodeId        0x08007895     0x8  Code  Gb  ember-multi-network-stub.o [14]
emGetRadioPanId         0x0800789d     0x8  Code  Gb  ember-multi-network-stub.o [14]
emGetRouteTableEntryIndex
                        0x08012999     0x4  Code  Gb  leaf-routing-stub.o [20]
emGetSecurityFrameCounter
                        0x0801b495     0xa  Code  Gb  crypto.o [20]
emGetTempFromAdc        0x0800da21    0x10  Code  Gb  phy.o [20]
emGetTrustCenterEui64   0x0801467f    0x3c  Code  Gb  aps-keys.o [18]
emGetTxPowerMode        0x0800f53b     0x8  Code  Gb  phy-common.o [20]
emGetZigbeeBinding      0x0800aea3    0x16  Code  Gb  binding-table.o [4]
emGetZigbeeEventNetworkIndex
                        0x08007837     0x4  Code  Gb  ember-multi-network-stub.o [14]
emGoToNextScanChannel   0x08012819     0x4  Code  Gb  zll-stubs.o [21]
emHandleBindUnbindRequests
                        0x0801e6bd    0x9c  Code  Gb  zdo-binding-table.o [4]
emHandleBindingTableRequest
                        0x0801e765   0x108  Code  Gb  zdo-binding-table.o [4]
emHandleChildIdConflict
                        0x08019221    0x3a  Code  Gb  random-id.o [20]
emHandleEndDeviceBindRequest
                        0x0801d879     0x4  Code  Gb  end-device-bind-stub.o [11]
emHandleLeaveCommand    0x08018e43    0xe4  Code  Gb  leave.o [20]
emHandleNwkUpdateRequest
                        0x08012f49    0xdc  Code  Gb  zdo-channel.o [20]
emHandleRouteCommand    0x08012a49     0x2  Code  Gb  leaf-routing-stub.o [20]
emHandleRouteError      0x0801be25    0x8a  Code  Gb  route-error.o [20]
emHandleSleepyRequest   0x0800a241   0x108  Code  Gb  application-support.o [20]
emHaveFullZdo           0x200022de     0x1  Data  Gb  zigbee-device-util.o [20]
emHavePendingRetryMessages
                        0x08013ceb     0xa  Code  Gb  retry.o [20]
emHaveTrustCenterLinkKey
                        0x0801483b    0x18  Code  Gb  aps-keys.o [18]
emHaveUnicastAlarmAck   0x08018b9b     0x2  Code  Gb  alarm-stub.o [3]
emHeaderApsPayloadIndex
                        0x08017a5b    0x18  Code  Gb  zigbee-packet-header.o [20]
emHeaderGetInt16u       0x08017c75    0x12  Code  Gb  packet-header.o [20]
emHeaderGetInt8u        0x08017cab     0xc  Code  Gb  packet-header.o [20]
emHeaderGetNetworkIndex
                        0x08017cf5     0xa  Code  Gb  packet-header.o [20]
emHeaderMacInfoField    0x08017ce1     0x4  Code  Gb  packet-header.o [20]
emHeaderNetworkPayloadIndex
                        0x08017955    0x24  Code  Gb  zigbee-packet-header.o [20]
emHeaderSetInt16u       0x08017c87    0x16  Code  Gb  packet-header.o [20]
emHeaderSetInt8u        0x08017c9d     0xe  Code  Gb  packet-header.o [20]
emHeaderSetMacInfoField
                        0x08017ce5     0x6  Code  Gb  packet-header.o [20]
emHeaderSetStackPrivate
                        0x08017cff    0x10  Code  Gb  packet-header.o [20]
emHighSecurityModeSupported
                        0x08025ae0     0x1  Data  Gb  aps-skke-stub.o [18]
emHmacAesHash           0x0801c325    0x62  Code  Gb  hmac.o [18]
emHoldMessageBuffer     0x0800b0af    0x1c  Code  Gb  packet-buffer.o [20]
emIeeeAddressRequest    0x08018955    0x10  Code  Gb  zigbee-device-util.o [20]
emIeeeAddressRequestToTarget
                        0x08018917    0x38  Code  Gb  zigbee-device-util.o [20]
emInInitialBroadcastTimeout
                        0x20002f12     0x1  Data  Gb  broadcast.o [20]
emInUseAsNextHop        0x08012995     0x4  Code  Gb  leaf-routing-stub.o [20]
emIncomingApsFrameCounters
                        0x2000207c     0x4  Data  Gb  ember-configuration.o [1]
emInitEui64             0x0801b0cd    0x18  Code  Gb  eui64.o [20]
emInitializeAddressTable
                        0x0800a495    0x18  Code  Gb  address-table.o [20]
emInitializeBindingTable
                        0x0800af57    0x3c  Code  Gb  binding-table.o [4]
emInitializeBroadcast   0x0801296b    0x20  Code  Gb  broadcast.o [20]
emInitializeCbke        0x08012805     0x2  Code  Gb  cbke-crypto-engine-163k1-stub.o [5]
emInitializeCbke283k1   0x0801280b     0x2  Code  Gb  cbke-crypto-engine-283k1-stub.o [6]
emInitializeIdAssignment
                        0x0801905d    0x58  Code  Gb  random-id.o [20]
emInitializeRouteTableEntry
                        0x08012991     0x2  Code  Gb  leaf-routing-stub.o [20]
emInitializeTableRouting
                        0x08012993     0x2  Code  Gb  leaf-routing-stub.o [20]
emInitializeTrustCenterSecurity
                        0x08015adf    0x1e  Code  Gb  aps-security.o [18]
emInitiateSkkeProtocol  0x0801c3e1     0x4  Code  Gb  aps-skke-stub.o [18]
emInstallCodeLibraryStatus
                        0x08025ae2     0x1  Data  Gb  install-code-stub.o [13]
emIsBlacklistedId       0x080192d9    0x36  Code  Gb  random-id.o [20]
emIsBufferSizeOk        0x080177f3    0x12  Code  Gb  zigbee-packet-header.o [20]
emIsConcentrator        0x080129ad     0x4  Code  Gb  leaf-routing-stub.o [20]
emIsCurrentNetworkStackEmpty
                        0x0800783b     0x4  Code  Gb  ember-multi-network-stub.o [14]
emIsEndDeviceChild      0x08013e2f     0x4  Code  Gb  child-stub.o [20]
emIsInUnicastTable      0x0801b3ed    0x28  Code  Gb  unicast-table.o [20]
emIsMacIdle             0x0800fddf     0xc  Code  Gb  mac.o [20]
emIsMobileJoinRequest   0x080126b3    0x4c  Code  Lc  network.o [20]
emIsNetworkAlwaysOn     0x0800781d     0xe  Code  Gb  ember-multi-network-stub.o [14]
emIsNetworkJoined       0x08007805    0x18  Code  Gb  ember-multi-network-stub.o [14]
emIsNodeInBroadcastTable
                        0x0801288b    0x10  Code  Gb  broadcast.o [20]
emIsNodeInRoutingTables
                        0x080129a3     0x4  Code  Gb  leaf-routing-stub.o [20]
emIsNullKey             0x08015ad7     0x8  Code  Gb  aps-security.o [18]
emIsRf4ceNetwork        0x08009a45    0x12  Code  Gb  ember-stack-common.o [20]
emIsSleepyChild         0x08013e2b     0x4  Code  Gb  child-stub.o [20]
emIsStateJoiningOrRejoining
                        0x08009a01    0x18  Code  Gb  ember-stack-common.o [20]
emIsTokenDataInitialized
                        0x08014633    0x24  Code  Gb  aps-keys.o [18]
emIsZigbeeStateUnauthenticated
                        0x0801138f    0x1a  Code  Gb  network.o [20]
emJitTransmitComplete   0x0801b221    0x7c  Code  Gb  jit.o [20]
emJoinNetworkInternal   0x0800b94b   0x13a  Code  Gb  association.o [20]
emLeaveCommandSent      0x08019019    0x44  Code  Gb  leave.o [20]
emLeaveNetworkQuietly   0x08018d8f    0x32  Code  Gb  leave.o [20]
emLinkQualityToCost     0x080142ed    0x1a  Code  Gb  neighbor.o [20]
emLoadKeyIntoCore       0x0801a1b5    0x2c  Code  Gb  aes.o [20]
emLoadNetworkKey        0x08015a6f    0x2e  Code  Gb  aps-security.o [18]
emLocalEui64            0x20002cb4     0x8  Data  Gb  eui64.o [20]
emLocalRadioNodeId      0x20002324     0x2  Data  Lc  phy-common.o [20]
emLocalRadioPanId       0x20002326     0x2  Data  Lc  phy-common.o [20]
emLongIdDataPendingForDevice
                        0x08012eaf     0x4  Code  Gb  mac-indirect-stub.o [20]
emLookupChildEui64ById  0x08013e37     0x4  Code  Gb  child-stub.o [20]
emMacAckNeeded          0x20002314     0x1  Data  Gb  phy-common.o [20]
emMacAssociateRequest   0x080199df    0x36  Code  Gb  command.o [20]
emMacAssociateRespond   0x08019a15    0x3e  Code  Gb  command.o [20]
emMacBeaconSequenceNumber
                        0x200022f8     0x1  Data  Gb  mac-arbiter.o [20]
emMacBuffer             0x200022f9     0x1  Data  Gb  mac-arbiter.o [20]
emMacCancelPoll         0x0800fefb     0xa  Code  Gb  mac-arbiter.o [20]
emMacCheckIncomingQueue
                        0x08012c9f    0x2a  Code  Gb  mac-receive.o [20]
emMacCheckRadio         0x0801a105    0x2a  Code  Gb  mac-em250.o [20]
emMacCurrentCommand     0x2000230d     0x1  Data  Gb  mac-arbiter.o [20]
emMacCurrentFrameType   0x2000230c     0x1  Data  Gb  mac-arbiter.o [20]
emMacDequeue            0x0800ff05    0x84  Code  Gb  mac-arbiter.o [20]
emMacDestinationMode    0x08017d91    0x24  Code  Gb  packet-header.o [20]
emMacDestinationPointer
                        0x08017db5    0x20  Code  Gb  packet-header.o [20]
emMacFilterMatchCheck   0x0801bb3d   0x112  Code  Gb  mac-header.o [20]
emMacHeaderLength       0x08017d5b    0x36  Code  Gb  packet-header.o [20]
emMacIncomingQueueIsEmpty
                        0x08012cf9     0x6  Code  Gb  mac-receive.o [20]
emMacIndirectCheckPollFlags
                        0x08012ec3     0x2  Code  Gb  mac-indirect-stub.o [20]
emMacIndirectEvent      0x20002efc     0x8  Data  Gb  mac-indirect-stub.o [20]
emMacIndirectEventHandler
                        0x08012ebf     0x2  Code  Gb  mac-indirect-stub.o [20]
emMacIndirectInit       0x08012ea9     0x2  Code  Gb  mac-indirect-stub.o [20]
emMacIndirectProcessPollIsr
                        0x08012eb3     0x4  Code  Gb  mac-indirect-stub.o [20]
emMacIndirectPurge      0x08012ec1     0x2  Code  Gb  mac-indirect-stub.o [20]
emMacIndirectTransmitComplete
                        0x08012ebb     0x4  Code  Gb  mac-indirect-stub.o [20]
emMacInfoLowByte        0x08017ceb     0xa  Code  Gb  packet-header.o [20]
emMacInit               0x08010007    0x30  Code  Gb  mac-arbiter.o [20]
emMacIsEmpty            0x0800ffdb    0x2c  Code  Gb  mac-arbiter.o [20]
emMacKickStart          0x0800f9d1    0x34  Code  Gb  mac.o [20]
emMacMakePollCommand    0x08019937    0x40  Code  Gb  command.o [20]
emMacMaxAckRetries      0x20002362     0x1  Data  Gb  mac-em250.o [20]
emMacPassthroughMessageType
                        0x0801bad3    0x6a  Code  Gb  mac-header.o [20]
emMacPermitAssn         0x20002fe3     0x1  Data  Gb  command.o [20]
emMacPrepareTransmitBuffer
                        0x0800fc4f   0x190  Code  Gb  mac.o [20]
emMacReallySuspendTransmission
                        0x0800ff89    0x52  Code  Gb  mac-arbiter.o [20]
emMacRequestPoll        0x0800fedf    0x1c  Code  Gb  mac-arbiter.o [20]
emMacRetries            0x20002361     0x1  Data  Gb  mac-em250.o [20]
emMacScanDwell          0x0800fc0d    0x3a  Code  Gb  mac.o [20]
emMacScanEnd            0x0800fbdb    0x32  Code  Gb  mac.o [20]
emMacScanType           0x200022b0     0x1  Data  Gb  scan.o [20]
emMacSendBeacon         0x08019a53    0x96  Code  Gb  command.o [20]
emMacSendBeaconRequest  0x0801990b    0x10  Code  Gb  command.o [20]
emMacSendCoordinatorRealignment
                        0x08019977    0x68  Code  Gb  command.o [20]
emMacSendMessage        0x080197bf   0x138  Code  Gb  command.o [20]
emMacSendOrphanNotification
                        0x080198f7    0x14  Code  Gb  command.o [20]
emMacShortDestination   0x08017dd5     0x8  Code  Gb  packet-header.o [20]
emMacShortSource        0x08017e3f     0x6  Code  Gb  packet-header.o [20]
emMacShutdownCallback   0x20002308     0x4  Data  Gb  mac-arbiter.o [20]
emMacSourceMode         0x08017ddd    0x24  Code  Gb  packet-header.o [20]
emMacSourcePointer      0x08017e01    0x3e  Code  Gb  packet-header.o [20]
emMacState              0x20002e70     0x1  Data  Gb  mac.o [20]
emMacSubmit             0x0800fe71    0x6e  Code  Gb  mac-arbiter.o [20]
emMacSubmitIndirect     0x08012eab     0x4  Code  Gb  mac-indirect-stub.o [20]
emMacTimerEvent         0x20002e74     0x8  Data  Gb  mac.o [20]
emMacTimerEventHandler  0x0800fa05   0x190  Code  Gb  mac.o [20]
emMacToNetworkQueue     0x20002310     0x4  Data  Gb  mac-arbiter.o [20]
emMacTransmitCompleteCallback
                        0x080120a1    0xb4  Code  Gb  network.o [20]
emMacTransmitCompleteHandler
                        0x080100cf    0x1c  Code  Gb  mac-arbiter.o [20]
emMacTransmitCompleteIsr
                        0x08010037    0x66  Code  Gb  mac-arbiter.o [20]
emMacTxOptions          0x20002e71     0x1  Data  Gb  mac.o [20]
emMakeApsUnicast        0x08009cd7    0x60  Code  Gb  application-support.o [20]
emMakeBroadcastBitmask  0x08014271    0x54  Code  Gb  neighbor.o [20]
emMakeChildAlarmJitMessage
                        0x08018b9f     0x4  Code  Gb  alarm-stub.o [3]
emMakeHeader            0x08017e4d    0x54  Code  Gb  packet-header.o [20]
emMakeMessage           0x0800b481    0x10  Code  Gb  packet-buffer.o [20]
emMakeMessageUsingVaList
                        0x0800b44d    0x34  Code  Gb  packet-buffer.o [20]
emMakeNetworkStatusMessage
                        0x0801bdf9    0x2c  Code  Gb  route-error.o [20]
emMakeStackJitMessage   0x0801b1c5    0x5c  Code  Gb  jit.o [20]
emMakeZigbeeCommandHeader
                        0x08017917    0x3e  Code  Gb  zigbee-packet-header.o [20]
emMakeZigbeeHeader      0x08017811   0x106  Code  Gb  zigbee-packet-header.o [20]
emManufacturerCode      0x2000227e     0x2  Data  Gb  zigbee-device.o [20]
emMarkTaskActive        0x0800326f     0xe  Code  Gb  event-control.o [20]
emMaxApsUnicastMessages
                        0x20002070     0x1  Data  Gb  ember-configuration.o [1]
emMaxEndDeviceChildren  0x20002083     0x1  Data  Gb  ember-configuration.o [1]
emMaxHops               0x20002084     0x1  Data  Gb  ember-configuration.o [1]
emMaxPhyToMacQueueLength
                        0x20002352     0x2  Data  Gb  mac-receive.o [20]
emMaximumApsPayloadWithOptions
                        0x0800a19d    0x18  Code  Gb  application-support.o [20]
emMaximumIncomingTransferSize
                        0x20002282     0x2  Data  Gb  zigbee-device.o [20]
emMaximumOutgoingTransferSize
                        0x20002284     0x2  Data  Gb  zigbee-device.o [20]
emMaybeWakeupApsRetry   0x08013415    0x24  Code  Gb  aps-retry.o [20]
emMemoryByteCompare     0x080099b7    0x1e  Code  Gb  ember-stack-common.o [20]
emMessageBufferLengths  0x20002014     0x4  Data  Gb  ember-configuration.o [1]
emMessageBufferQueueAdd
                        0x0800b601    0x2a  Code  Gb  packet-buffer.o [20]
emMessageBufferQueueIsEmpty
                        0x0800b679     0xe  Code  Gb  packet-buffer.o [20]
emMessageBufferQueueRemoveHead
                        0x0800b62b    0x2c  Code  Gb  packet-buffer.o [20]
emMessageBufferReferenceCounts
                        0x20002018     0x4  Data  Gb  ember-configuration.o [1]
emMfgSecurityConfigModifyKey
                        0x0801bfa9    0x34  Code  Gb  security-config-mfg-3xx.o [18]
emMfglibMode            0x20002315     0x1  Data  Gb  phy-common.o [20]
emMfglibRxCallback      0x20002358     0x4  Data  Gb  mac-receive.o [20]
emMfglibTransmitComplete
                        0x20002316     0x1  Data  Gb  phy-common.o [20]
emMobileChildCount      0x20002fd2     0x1  Data  Gb  child-stub.o [20]
emModifySecurityState   0x080145dd     0x6  Code  Gb  aps-keys.o [18]
emMsSinceLastSuccessfulPoll
                        0x08012e7d     0x8  Code  Gb  child-aging.o [20]
emNcpLibraryStatus      0x08025ade     0x1  Data  Wk  ember-library.o [20]
emNeedsFurtherTransmissions
                        0x08012667    0x44  Code  Gb  network.o [20]
emNegotiationProtocolEvent
                        0x20002e68     0x8  Data  Gb  aps-skke-stub.o [18]
emNeighborCost          0x080142c5    0x28  Code  Gb  neighbor.o [20]
emNeighborData          0x20002050     0x4  Data  Gb  ember-configuration.o [1]
emNeighborEntryIncomingCost
                        0x08014307     0x6  Code  Gb  neighbor.o [20]
emNeighborEntryIndex    0x08013f27    0x14  Code  Gb  neighbor.o [20]
emNeighborEntrySetAge   0x080143bd     0xe  Code  Gb  neighbor.o [20]
emNeighborEntrySetOutgoingCost
                        0x08014343     0xc  Code  Gb  neighbor.o [20]
emNeighborEvent         0x20002e00     0x8  Data  Gb  neighbor.o [20]
emNeighborEventHandler  0x0801434f    0x6e  Code  Gb  neighbor.o [20]
emNeighborExchangeEvent
                        0x20002e08     0x8  Data  Gb  leaf-routing-stub.o [20]
emNeighborExchangeEventHandler
                        0x08012a63     0x2  Code  Gb  leaf-routing-stub.o [20]
emNeighborFindEntry     0x08013f3b    0x1e  Code  Gb  neighbor.o [20]
emNeighborFirstCurrentKeyUse
                        0x08014b1f    0x44  Code  Gb  zigbee-neighbor.o [20]
emNeighborIdConflict    0x080191fb    0x26  Code  Gb  random-id.o [20]
emNeighborInit          0x08013e77    0x20  Code  Gb  neighbor.o [20]
emNeighborProcessQuality
                        0x08013e41    0x36  Code  Gb  neighbor.o [20]
emNetworkAddressRequest
                        0x08018a01    0x30  Code  Gb  zigbee-device-util.o [20]
emNetworkCheckIncomingQueue
                        0x080118ff    0x4e  Code  Gb  network.o [20]
emNetworkDescriptor     0x20002048     0x4  Data  Gb  ember-configuration.o [1]
emNetworkDescriptorInit
                        0x080076f9    0x7a  Code  Gb  ember-multi-network-stub.o [14]
emNetworkEncrypt        0x0801170f    0x78  Code  Gb  network.o [20]
emNetworkManagementEvent
                        0x200022ec     0x8  Data  Gb  management.o [20]
emNetworkManagementEventHandler
                        0x08017549    0x5c  Code  Gb  management.o [20]
emNetworkManagementInit
                        0x080173ad     0xe  Code  Gb  management.o [20]
emNetworkProcessIncoming
                        0x0801194d   0x126  Code  Gb  network.o [20]
emNetworkSend           0x080113a9    0x2c  Code  Gb  network.o [20]
emNetworkSendBroadcast  0x080113d5    0x8a  Code  Gb  network.o [20]
emNetworkSendUnicast    0x0801148d   0x1ec  Code  Gb  network.o [20]
emNetworkSubmitUnicast  0x08011685     0x2  Code  Gb  network.o [20]
emNetworkToApplicationQueue
                        0x200022e0     0x4  Data  Gb  network.o [20]
emNetworkTransmitComplete
                        0x08012161   0x24a  Code  Gb  network.o [20]
emNetworkTransmitCompleteCallback
                        0x0801375f    0x8e  Code  Gb  aps-retry.o [20]
emNextApsFrameCounter   0x08017ee3    0x1a  Code  Gb  aps-encryption.o [18]
emNormalizeBufferIndex  0x0800b3d9    0x18  Code  Gb  packet-buffer.o [20]
emNoteIncomingFrameCounter
                        0x08014a33     0xe  Code  Gb  zigbee-neighbor.o [20]
emNoteJoinAuthenticated
                        0x0800b7a3    0x4a  Code  Gb  association.o [20]
emNoteJoinFailureForTimeout
                        0x0800b6bf     0x8  Code  Gb  association.o [20]
emNoteJoiningChange     0x0800c3c5    0x1e  Code  Gb  association.o [20]
emNoteLinkKeyRequest    0x0800b6c7    0x20  Code  Gb  association.o [20]
emNoteNodeTypeChange    0x080078d5     0x2  Code  Gb  ember-multi-network-stub.o [14]
emNoteSleepyDeviceInKeyTable
                        0x0801c245    0x22  Code  Gb  aps-keys-full.o [19]
emNoteSuccessfulPoll    0x08012e57    0x26  Code  Gb  child-aging.o [20]
emNoteUnicastRetryEvent
                        0x080132ab    0x22  Code  Gb  aps-retry.o [20]
emOverrideTrustCenterEui64
                        0x080146e1     0x4  Code  Gb  aps-keys.o [18]
emPacketBufferCount     0x2000200e     0x1  Data  Gb  ember-configuration.o [1]
emPacketBufferData      0x20002010     0x4  Data  Gb  ember-configuration.o [1]
emPacketBufferFreeCount
                        0x2000200f     0x1  Data  Gb  ember-configuration.o [1]
emPacketBufferLinks     0x2000201c     0x4  Data  Gb  ember-configuration.o [1]
emPacketBufferQueueLinks
                        0x20002020     0x4  Data  Gb  ember-configuration.o [1]
emPacketHeaderContents  0x08017ccd    0x14  Code  Gb  packet-header.o [20]
emPacketHeaderOverhead  0x08017cb7    0x16  Code  Gb  packet-header.o [20]
emPacketHeaderPayload   0x0800b139    0x1a  Code  Gb  packet-buffer.o [20]
emPacketReceivedInternalIsrCallback
                        0x08012a65    0x72  Code  Gb  mac-receive.o [20]
emPacketValidateCheck   0x080184a3    0x42  Code  Gb  packet-validate.o [15]
emPacketValidateLibrary
                        0x08025ae5     0x1  Data  Gb  packet-validate.o [15]
emPacketValidateLibraryInfo
                        0x080181d5     0xa  Code  Gb  packet-validate.o [15]
emPanIdConflictReportThreshold
                        0x2000208b     0x1  Data  Gb  ember-configuration.o [1]
emPhySetCoordinator     0x0800f82d    0x1e  Code  Gb  phy-common.o [20]
emPhySetEui64           0x0800f7ff    0x2e  Code  Gb  phy-common.o [20]
emPhyToMacQueue         0x2000235c     0x4  Data  Gb  mac-receive.o [20]
emPickNewId             0x08019105    0x5a  Code  Gb  random-id.o [20]
emPickRandomId          0x080190b5    0x50  Code  Gb  random-id.o [20]
emPollDelayingEvent     0x20002c98     0x8  Data  Gb  ember-multi-network-stub.o [14]
emPollDelayingHandler   0x080078d3     0x2  Code  Gb  ember-multi-network-stub.o [14]
emPollPending           0x080078cb     0x4  Code  Gb  ember-multi-network-stub.o [14]
emPowerDescriptor       0x20002280     0x2  Data  Gb  zigbee-device.o [20]
emPrepareRetryEntryForSubmission
                        0x080123c9   0x274  Code  Gb  network.o [20]
emPrintfInternal        0x08007a83   0x172  Code  Gb  serial.o [1]
emProcessAlarmMessage   0x08018b99     0x2  Code  Gb  alarm-stub.o [3]
emProcessApplicationKey
                        0x0801c267    0x66  Code  Gb  aps-keys-full.o [19]
emProcessChildAlarmMessage
                        0x08018b9d     0x2  Code  Gb  alarm-stub.o [3]
emProcessIncomingBeacon
                        0x0800c3f1   0x234  Code  Gb  association.o [20]
emProcessIncomingBroadcast
                        0x08011e5d   0x104  Code  Gb  network.o [20]
emProcessJoinRequest    0x0800bda1   0x194  Code  Gb  association.o [20]
emProcessJoinResponse   0x0800bf45   0x14e  Code  Gb  association.o [20]
emProcessManagementCommand
                        0x0801742b   0x112  Code  Gb  management.o [20]
emProcessNegotiationMessage
                        0x0801c3e5     0x2  Code  Gb  aps-skke-stub.o [18]
emProcessNeighborExchange
                        0x08012a5d     0x2  Code  Gb  leaf-routing-stub.o [20]
emProcessNetworkHeader  0x080126ff    0x8a  Code  Gb  network.o [20]
emProcessRequestKey     0x08019c59    0xc2  Code  Gb  trust-center-util.o [18]
emProcessTransmitState  0x0801a141     0xc  Code  Gb  mac-em250.o [20]
emProcessZllInterpanStackMessage
                        0x08012823     0x4  Code  Gb  zll-stubs.o [21]
emPurgeAddressTableEntryPendingMessages
                        0x08013ab5    0x34  Code  Gb  aps-retry.o [20]
emRadioAdjustLna        0x080170e9     0x4  Code  Gb  analogue-lna.o [20]
emRadioAdjustModDac     0x08016e79     0xe  Code  Gb  analogue-mod-dac.o [20]
emRadioAlwaysUseZeroBackoff
                        0x2000231e     0x1  Data  Gb  phy-common.o [20]
emRadioAutoAckEnabled   0x0800f7f9     0x6  Code  Gb  phy-common.o [20]
emRadioBootPhySpecific  0x0800d595    0x64  Code  Gb  phy.o [20]
emRadioCalculateLinkQuality
                        0x0800f157    0x16  Code  Gb  phy-common.o [20]
emRadioCalculateModDacTuneValue
                        0x08016fa5   0x10c  Code  Gb  analogue-mod-dac.o [20]
emRadioCalibrateCellBias
                        0x08016c6d    0xa6  Code  Gb  analogue-cell-bias.o [20]
emRadioCalibrateFilter  0x08016d59    0x36  Code  Gb  analogue-filter.o [20]
emRadioCalibrateLna     0x080170f3   0x160  Code  Gb  analogue-lna.o [20]
emRadioCalibrateVco     0x08016dcb    0x8a  Code  Gb  analogue-vco.o [20]
emRadioChannel          0x20002262     0x1  Data  Gb  analogue.o [20]
emRadioCheckRadio       0x0800da31    0x34  Code  Gb  phy.o [20]
emRadioEnableAddressMatching
                        0x0800f7a9    0x20  Code  Gb  phy-common.o [20]
emRadioEnableAutoAck    0x0800f7c9    0x30  Code  Gb  phy-common.o [20]
emRadioEnablePacketTrace
                        0x0800f879    0x18  Code  Gb  phy-common.o [20]
emRadioEnergyDetection  0x0800f78f    0x1a  Code  Gb  phy-common.o [20]
emRadioGetEdCcaThreshold
                        0x0800f8dd     0x8  Code  Gb  phy-common.o [20]
emRadioGetIdleMode      0x0800f763     0x6  Code  Gb  phy-common.o [20]
emRadioGetNodeId        0x0800f853     0x6  Code  Gb  phy-common.o [20]
emRadioGetPanId         0x0800f863     0x6  Code  Gb  phy-common.o [20]
emRadioGetPowerStatus   0x0800f73f     0x6  Code  Gb  phy-common.o [20]
emRadioGetRandomNumbers
                        0x0800d965    0x5c  Code  Gb  phy.o [20]
emRadioHoldOffIsr       0x0800da65    0x2a  Code  Gb  phy.o [20]
emRadioIdleMicro        0x0800f2f5    0x50  Code  Lc  phy-common.o [20]
emRadioInit             0x0800f543   0x11c  Code  Gb  phy-common.o [20]
emRadioLastOutgoingCommand
                        0x2000231f     0x1  Data  Gb  phy-common.o [20]
emRadioMacTimerDelayExpired
                        0x20002fe4     0x1  Data  Gb  phy-common.o [20]
emRadioManagePollTxRxTurnaround
                        0x2000231d     0x1  Data  Gb  phy-common.o [20]
emRadioOkToIdle         0x0800f745    0x1e  Code  Gb  phy-common.o [20]
emRadioPower            0x2000226c     0x1  Data  Gb  analogue.o [20]
emRadioReadSerialReg    0x08009209     0xe  Code  Gb  analogue.o [20]
emRadioReceiveCompleteCallback
                        0x080100eb   0x15e  Code  Gb  mac-arbiter.o [20]
emRadioReceiveCrcEnabled
                        0x0800f873     0x6  Code  Gb  phy-common.o [20]
emRadioReceiveIsr       0x0800d82b   0x134  Code  Gb  phy.o [20]
emRadioReceiveMacHeaderCallback
                        0x0801bc51   0x154  Code  Gb  mac-header.o [20]
emRadioResetAndEnableReceive
                        0x0800d549    0x4c  Code  Gb  phy.o [20]
emRadioSeedRandom       0x080112e9    0x12  Code  Gb  phy-util.o [20]
emRadioSetEdCcaThreshold
                        0x0800f891    0x4c  Code  Gb  phy-common.o [20]
emRadioSetIdleMode      0x0800f769    0x26  Code  Gb  phy-common.o [20]
emRadioSetNodeId        0x0800f859     0xa  Code  Gb  phy-common.o [20]
emRadioSetPanId         0x0800f869     0xa  Code  Gb  phy-common.o [20]
emRadioSleep            0x0800f667    0x7a  Code  Gb  phy-common.o [20]
emRadioTransmit         0x0800f1ad   0x148  Code  Gb  phy-common.o [20]
emRadioTransmitCompleteCallback
                        0x0801a017    0xb6  Code  Gb  mac-em250.o [20]
emRadioTransmitIsr      0x0800f345   0x1f6  Code  Gb  phy-common.o [20]
emRadioTruncateIncomingAckToPoll
                        0x20002cd0     0x1  Data  Gb  phy.o [20]
emRadioTxAckIsrCallback
                        0x0801a0cd    0x38  Code  Gb  mac-em250.o [20]
emRadioTxPowerMode      0x20002278     0x2  Data  Gb  analogue.o [20]
emRadioUnpackChipErrors
                        0x0800f149     0xe  Code  Gb  phy-common.o [20]
emRadioWakeUp           0x0800f6e1    0x5e  Code  Gb  phy-common.o [20]
emRadioWriteSerialReg   0x08009217    0x34  Code  Gb  analogue.o [20]
emReadRadioTokens       0x0800c9ad    0x2e  Code  Gb  association.o [20]
emReadSecurityToken     0x080145f9    0x3a  Code  Gb  aps-keys.o [18]
emRealECCLibraryPresent
                        0x08012801     0x4  Code  Gb  cbke-crypto-engine-163k1-stub.o [5]
emRealECCLibraryPresent283k1
                        0x08012807     0x4  Code  Gb  cbke-crypto-engine-283k1-stub.o [6]
emReallyCopyToLinkedBuffers
                        0x0800b205    0x40  Code  Gb  packet-buffer.o [20]
emReallyGetNetworkKey   0x0801579d    0x2a  Code  Gb  aps-security.o [18]
emReallySendRouteRequest
                        0x08012a55     0x4  Code  Gb  leaf-routing-stub.o [20]
emReallyStopScan        0x08019495    0x5c  Code  Lc  scan.o [20]
emReconstructDecryptedHeader
                        0x0801778b    0x38  Code  Gb  zigbee-packet-header.o [20]
emReencryptRetries      0x200022a0     0x1  Data  Gb  aps-retry.o [20]
emReleaseMessageBuffer  0x0800b0cb    0x6e  Code  Gb  packet-buffer.o [20]
emRemoteModifyBinding   0x0800aeb9    0x90  Code  Gb  binding-table.o [4]
emRemoveApsMic          0x080181a5    0x1e  Code  Gb  aps-encryption.o [18]
emRemoveNeighbor        0x08014065    0x9c  Code  Gb  neighbor.o [20]
emRemoveNeighborEui     0x08014181    0x42  Code  Gb  neighbor.o [20]
emReplaceNeighbor       0x08014101    0x10  Code  Gb  neighbor.o [20]
emRequestKeyEvent       0x20002df0     0x8  Data  Gb  aps-keys.o [18]
emRequestKeyEventHandler
                        0x08014955    0x2c  Code  Gb  aps-keys.o [18]
emRequestKeyTimeout     0x20002fba     0x1  Data  Gb  ember-configuration.o [1]
emRequestKeyTimeoutControl
                        0x08014923    0x18  Code  Gb  aps-keys.o [18]
emRequireLongIdForMovedChildCheck
                        0x08012839     0x4  Code  Gb  zll-stubs.o [21]
emResetApsFrameCounter  0x08017efd    0x1c  Code  Gb  aps-encryption.o [18]
emResetNwkIncomingFrameCounters
                        0x080149a5    0x22  Code  Gb  zigbee-neighbor.o [20]
emResetNwkOutgoingFrameCounter
                        0x0801b49f    0x1e  Code  Gb  crypto.o [20]
emRestoreCurrentNetworkInternal
                        0x0800784b     0x2  Code  Gb  ember-multi-network-stub.o [14]
emRetryCancel           0x08013c89    0x52  Code  Gb  retry.o [20]
emRetryDelayEvent       0x20002e1c     0x8  Data  Gb  retry.o [20]
emRetryDelayEventHandler
                        0x08013e05     0x6  Code  Gb  retry.o [20]
emRetryInit             0x08013d1b     0xc  Code  Gb  retry.o [20]
emRetryIsEmpty          0x08013cdb    0x10  Code  Gb  retry.o [20]
emRetryPurge            0x08013cf5    0x26  Code  Gb  retry.o [20]
emRetrySubmit           0x08013c49    0x40  Code  Gb  retry.o [20]
emRetryTransmit         0x08013d27    0x22  Code  Gb  retry.o [20]
emRetryTransmitComplete
                        0x08013d49    0x34  Code  Gb  retry.o [20]
emRf4ceAddBeaconPayload
                        0x0800fe43     0x4  Code  Gb  rf4ce-stack-stubs.o [16]
emRf4ceGetChannelFromPacketMacInfo
                        0x0800fe47    0x10  Code  Gb  rf4ce-stack-stubs.o [16]
emRf4ceGetHeaderField   0x0800fe25     0x4  Code  Gb  rf4ce-stack-stubs.o [16]
emRf4ceGetNetworkParameters
                        0x0800fe29     0x4  Code  Gb  rf4ce-stack-stubs.o [16]
emRf4ceGetNodeType      0x0800fe2d     0x4  Code  Gb  rf4ce-stack-stubs.o [16]
emRf4ceIncomingBeaconHandler
                        0x0800fe3d     0x2  Code  Gb  rf4ce-stack-stubs.o [16]
emRf4ceIncomingPacketHandler
                        0x0800fe31     0x2  Code  Gb  rf4ce-stack-stubs.o [16]
emRf4ceInit             0x0800fe21     0x4  Code  Gb  rf4ce-stack-stubs.o [16]
emRf4ceMacPrepareTransmitBuffer
                        0x0800fe39     0x2  Code  Gb  rf4ce-stack-stubs.o [16]
emRf4ceNetworkSwitchHandler
                        0x0800fe3f     0x2  Code  Gb  rf4ce-stack-stubs.o [16]
emRf4cePreparePacketForSubmission
                        0x0800fe35     0x4  Code  Gb  rf4ce-stack-stubs.o [16]
emRf4ceScanCompleteHandler
                        0x0800fe3b     0x2  Code  Gb  rf4ce-stack-stubs.o [16]
emRf4ceSetAllEventsInactive
                        0x0800fe41     0x2  Code  Gb  rf4ce-stack-stubs.o [16]
emRf4ceStackEvents      0x08025ab4     0x8  Data  Gb  rf4ce-stack-stubs.o [16]
emRf4ceStackTask        0x20002fd5     0x1  Data  Gb  zigbee-stack.o [20]
emRf4ceStartFromToken   0x0800fe57     0x4  Code  Gb  rf4ce-stack-stubs.o [16]
emRf4ceTransmitCompleteHandler
                        0x0800fe33     0x2  Code  Gb  rf4ce-stack-stubs.o [16]
emRouteData             0x20002038     0x4  Data  Gb  ember-configuration.o [1]
emRouteRecordTableGetChildFlag
                        0x080129b5     0x4  Code  Gb  leaf-routing-stub.o [20]
emRouteRecordTableSetOrClearChildFlag
                        0x080129b3     0x2  Code  Gb  leaf-routing-stub.o [20]
emRouteTableNextHop     0x080129a7     0x6  Code  Gb  leaf-routing-stub.o [20]
emRouteTableSize        0x2000203c     0x1  Data  Gb  ember-configuration.o [1]
emRouterNeighborTableSize
                        0x20002054     0x1  Data  Gb  ember-configuration.o [1]
emScanCommandTransmitCompleteIsr
                        0x080196cb    0x5e  Code  Gb  scan.o [20]
emScanCompleteHandler   0x0800c625   0x194  Code  Gb  association.o [20]
emScanEvent             0x200022b8     0x8  Data  Gb  scan.o [20]
emScanEventHandler      0x080194f9    0xf8  Code  Gb  scan.o [20]
emScanTimerIsr          0x080195f9    0x70  Code  Gb  scan.o [20]
emScheduleNextPoll      0x080078cf     0x4  Code  Gb  ember-multi-network-stub.o [14]
emSecurityCoreLibraryStatus
                        0x08025adf     0x1  Data  Gb  trust-center-util.o [18]
emSecurityEui64         0x080149c7    0x4c  Code  Gb  zigbee-neighbor.o [20]
emSecurityHardwareInit  0x0801a1e1     0x2  Code  Gb  aes.o [20]
emSecurityIncrementOutgoingFrameCounter
                        0x0801b46d    0x28  Code  Gb  crypto.o [20]
emSecurityInit          0x0801b4bd    0x36  Code  Gb  crypto.o [20]
emSecurityLinkKeysLibraryStatus
                        0x08025adc     0x1  Data  Gb  aps-keys-full.o [19]
emSecurityOkayToStartNetworkOperation
                        0x08015065    0x42  Code  Gb  aps-security.o [18]
emSecurityReadApsFrameCounterToken
                        0x08017ec1    0x1a  Code  Gb  aps-encryption.o [18]
emSecurityReadNetworkFrameCounterToken
                        0x0801b451    0x1c  Code  Gb  crypto.o [20]
emSendApplicationMasterKey
                        0x200022e5     0x1  Data  Gb  trust-center-util.o [18]
emSendApsCommand        0x08015309   0x14c  Code  Gb  aps-security.o [18]
emSendApsMessage        0x08009a89   0x24e  Code  Gb  application-support.o [20]
emSendKey               0x0801555d   0x108  Code  Gb  aps-security.o [18]
emSendMulticastsToSleepyAddress
                        0x20002fbb     0x1  Data  Gb  ember-configuration.o [1]
emSendNetworkKey        0x08019c2d    0x2c  Code  Gb  trust-center-util.o [18]
emSendOurEndDeviceAnnouncement
                        0x080189d5    0x2c  Code  Gb  zigbee-device-util.o [20]
emSendPanIdConflictReport
                        0x08017673    0x42  Code  Gb  management.o [20]
emSendRejoinResponse    0x0800bd15    0x8c  Code  Gb  association.o [20]
emSendReply             0x0800a1c7    0x4a  Code  Gb  application-support.o [20]
emSendReportOrUpdate    0x080175a5    0x92  Code  Gb  management.o [20]
emSendRouteError        0x0801bdbd    0x3c  Code  Gb  route-error.o [20]
emSendRouteRecord       0x08012a59     0x4  Code  Gb  leaf-routing-stub.o [20]
emSendRouteRequest      0x080129b9    0x84  Code  Gb  leaf-routing-stub.o [20]
emSendUpdateDevice      0x0801550d    0x48  Code  Gb  aps-security.o [18]
emSendZigDevMessage     0x08018a53    0xf6  Code  Gb  zigbee-device-util.o [20]
emSerial1RxQueue        0x20002a6c    0x88  Data  Lc  serial.o [1]
emSerial1TxQueue        0x200029e4    0x88  Data  Lc  serial.o [1]
emSerialBlocking        0x08007ea8     0x4  Data  Gb  serial.o [1]
emSerialPortModes       0x08007e94     0x4  Data  Gb  serial.o [1]
emSerialRegAddress      0x08009794    0x24  Data  Gb  analogue.o [20]
emSerialRxError         0x200021d4     0x4  Data  Gb  serial.o [1]
emSerialRxErrorIndex    0x200021d8     0x8  Data  Gb  serial.o [1]
emSerialRxQueueSizes    0x08025708     0x8  Data  Gb  serial.o [1]
emSerialRxQueueWraps    0x08007ea0     0x8  Data  Gb  serial.o [1]
emSerialRxQueues        0x200021f0    0x10  Data  Gb  serial.o [1]
emSerialTxQueueSizes    0x08007e8c     0x8  Data  Gb  serial.o [1]
emSerialTxQueueWraps    0x08007e98     0x8  Data  Gb  serial.o [1]
emSerialTxQueues        0x200021e0    0x10  Data  Gb  serial.o [1]
emSetAllChildrenToAlternateKey
                        0x08013e1b     0x2  Code  Gb  child-stub.o [20]
emSetAllNeighborsUsingAlternateKey
                        0x080143cb    0x26  Code  Gb  neighbor.o [20]
emSetAllSleepyChildFlags
                        0x08013e0d     0x4  Code  Gb  child-stub.o [20]
emSetChildId            0x08013e3b     0x2  Code  Gb  child-stub.o [20]
emSetCurrentNetworkInternal
                        0x08007849     0x2  Code  Gb  ember-multi-network-stub.o [14]
emSetCurrentRadioNetwork
                        0x08007871    0x1e  Code  Gb  ember-multi-network-stub.o [14]
emSetKeyTableEntry      0x0801c131    0xbe  Code  Gb  aps-keys-full.o [19]
emSetLinkedBuffersLength
                        0x0800b2fd    0x6c  Code  Gb  packet-buffer.o [20]
emSetMacDataAddress     0x08017d33    0x28  Code  Gb  packet-header.o [20]
emSetNeighborEui64      0x0801430d    0x36  Code  Gb  neighbor.o [20]
emSetNeighboringDevicesUsingAlternateKey
                        0x08014b03    0x1c  Code  Gb  zigbee-neighbor.o [20]
emSetNetworkKey         0x080156ef    0xa6  Code  Gb  aps-security.o [18]
emSetNetworkManagementState
                        0x0801740f    0x1c  Code  Gb  management.o [20]
emSetNetworkParameters  0x0800c8e3    0x36  Code  Gb  association.o [20]
emSetNetworkState       0x080098c9    0x76  Code  Gb  ember-stack-common.o [20]
emSetNodeId             0x0800827d     0x8  Code  Gb  zigbee-stack.o [20]
emSetNodeType           0x0800c859    0x38  Code  Gb  association.o [20]
emSetNwkUpdateId        0x080173f3    0x1c  Code  Gb  management.o [20]
emSetPacketHeaderPayload
                        0x0800b153    0x3e  Code  Gb  packet-buffer.o [20]
emSetPanId              0x0800828d     0x8  Code  Gb  zigbee-stack.o [20]
emSetParent             0x0800cb1d    0x18  Code  Gb  association.o [20]
emSetPhyRadioChannel    0x080095dd    0x10  Code  Gb  analogue.o [20]
emSetPhyRadioPower      0x080095fb    0xe4  Code  Gb  analogue.o [20]
emSetRadioParameters    0x08007773    0x54  Code  Gb  ember-multi-network-stub.o [14]
emSetSleepyBroadcast    0x0801b141    0x44  Code  Gb  jit.o [20]
emSetSleepyBroadcastMessageSentHandlerPending
                        0x0801b185    0x12  Code  Gb  jit.o [20]
emSetTrustCenterData    0x08014571    0x6c  Code  Gb  aps-keys.o [18]
emSetTrustCenterEui64   0x080146dd     0x4  Code  Gb  aps-keys.o [18]
emSetZigbeeEventNetworkIndex
                        0x08007835     0x2  Code  Gb  ember-multi-network-stub.o [14]
emSleepyBroadcastEvent  0x20002368     0x8  Data  Gb  jit.o [20]
emSleepyBroadcastEventHandler
                        0x0801b197    0x2e  Code  Gb  jit.o [20]
emSleepyBroadcastHeader
                        0x20002364     0x1  Data  Gb  jit.o [20]
emSourceRouteSubframeIndex
                        0x080177c3    0x30  Code  Gb  zigbee-packet-header.o [20]
emStackEnergyScanHandler
                        0x080130a1    0x10  Code  Gb  zdo-channel.o [20]
emStackMacFilterMatchList
                        0x20002f9c     0x4  Data  Gb  mac-header.o [20]
emStackTask             0x20002fd4     0x1  Data  Gb  zigbee-stack.o [20]
emStackTokenPrimitive   0x08015bc5    0x90  Code  Gb  token-cache.o [20]
emStandAloneEncryptBlock
                        0x0801a1e3    0x46  Code  Gb  aes.o [20]
emStartAdcTempReading   0x0800d9c1     0x8  Code  Gb  phy.o [20]
emStartEntityAuthenticationTimer
                        0x08018cad     0x2  Code  Gb  high-security-stub.o [18]
emStartRadioSetChannel  0x0800957d     0x4  Code  Gb  analogue.o [20]
emStartScan             0x080193ed    0x66  Code  Lc  scan.o [20]
emStopScan              0x08019453    0x42  Code  Gb  scan.o [20]
emStoreInt32u           0x0801b9e9    0x1c  Code  Gb  byte-utilities.o [20]
emSupportedNetworks     0x2000204c     0x1  Data  Gb  ember-configuration.o [1]
emSwitchNetworkKeys     0x0801567f    0x70  Code  Gb  aps-security.o [18]
emSynthFreqOffset       0x2000226a     0x1  Data  Gb  analogue.o [20]
emTaskCount             0x080255b0     0x1  Data  Gb  ember-configuration.o [1]
emTaskDetermineNextEvent
                        0x080030ed    0x28  Code  Lc  event-control.o [20]
emTaskEnableIdling      0x0800327d     0x6  Code  Gb  event-control.o [20]
emTasks                 0x20002858    0x30  Data  Gb  ember-configuration.o [1]
emTrackNextEvent        0x08003049    0x24  Code  Lc  event-control.o [20]
emTreeDepth             0x20002fe2     0x1  Data  Gb  random-id.o [20]
emTrustCenterAddedAsNeighbor
                        0x08015b1f    0x42  Code  Gb  aps-security.o [18]
emTrustCenterRequestKeyCleanup
                        0x08019f0b    0x1c  Code  Gb  trust-center-util.o [18]
emTxStepTimeAltRfPath   0x2000226d     0x1  Data  Gb  analogue.o [20]
emUnicastTable          0x20002f88    0x10  Data  Gb  unicast-table.o [20]
emUpdateAddressTable    0x0800a635    0x32  Code  Gb  address-table.o [20]
emUpdateBindingFlags    0x0800ac51    0x52  Code  Gb  binding-table.o [4]
emUpdateBindingRemoteNode
                        0x0800abcb    0x86  Code  Gb  binding-table.o [4]
emUpdateBroadcastTable  0x0801289b    0x2a  Code  Gb  broadcast.o [20]
emUpdateKeyState        0x0801c1f5    0x44  Code  Gb  aps-keys-full.o [19]
emUpdateNeighborTable   0x08014251    0x20  Code  Gb  neighbor.o [20]
emUpdateRouteReplyForRelaying
                        0x08012a4b     0x4  Code  Gb  leaf-routing-stub.o [20]
emUsingGlobalLinkKey    0x08015b61    0x1a  Code  Gb  aps-security.o [18]
emVcoAutoTuneEnabled    0x20002263     0x1  Data  Gb  analogue.o [20]
emWeakestNeighborIndex  0x08012a5f     0x4  Code  Gb  leaf-routing-stub.o [20]
emWriteHexInternal      0x08007a59    0x2a  Code  Gb  serial.o [1]
emWriteNodeData         0x0800c975    0x28  Code  Gb  association.o [20]
emWriteRadioAndNetworkTokens
                        0x0800c91d    0x58  Code  Gb  association.o [20]
emWriteSecurityToken    0x080145e3    0x16  Code  Gb  aps-keys.o [18]
emZigDevPrepareZdoMessage
                        0x08018a3d    0x16  Code  Gb  zigbee-device-util.o [20]
emZigbeeApplicationEvent
                        0x200022a4     0x8  Data  Gb  aps-retry.o [20]
emZigbeeApplicationEventHandler
                        0x08013411     0x4  Code  Gb  aps-retry.o [20]
emZigbeeAssociationEvent
                        0x2000223c     0x8  Data  Gb  association.o [20]
emZigbeeAssociationEventHandler
                        0x0800c2db    0xa2  Code  Gb  association.o [20]
emZigbeeBeaconEvent     0x2000224c     0x8  Data  Gb  association.o [20]
emZigbeeBeaconEventHandler
                        0x0800c395    0x28  Code  Gb  association.o [20]
emZigbeeChildJoinNotify
                        0x0801545d    0x64  Code  Gb  aps-security.o [18]
emZigbeeDestinationIeeeAddress
                        0x08017979    0x1a  Code  Gb  zigbee-packet-header.o [20]
emZigbeeDeviceBindUnbindResponse
                        0x0801d87f     0x2  Code  Gb  end-device-bind-stub.o [11]
emZigbeeDeviceEvent     0x20002f08     0x8  Data  Gb  end-device-bind-stub.o [11]
emZigbeeDeviceEventHandler
                        0x0801d87d     0x2  Code  Gb  end-device-bind-stub.o [11]
emZigbeeDeviceRequestHandler
                        0x0801856d   0x168  Code  Gb  zigbee-device-util.o [20]
emZigbeeDeviceResponseHandler
                        0x0801887f    0x98  Code  Gb  zigbee-device-util.o [20]
emZigbeeLeaveEvent      0x20002258     0x8  Data  Gb  leave.o [20]
emZigbeeLeaveEventHandler
                        0x08018cb5    0x2e  Code  Gb  leave.o [20]
emZigbeeLeaveInternal   0x08018cfb    0x8c  Code  Gb  leave.o [20]
emZigbeeMaxNetworkRetries
                        0x200022e4     0x1  Data  Gb  network.o [20]
emZigbeeNegotiationProtocolEventHandler
                        0x0801c3e7     0x2  Code  Gb  aps-skke-stub.o [18]
emZigbeePermitJoiningEvent
                        0x20002c5c     0x8  Data  Gb  association.o [20]
emZigbeePermitJoiningEventHandler
                        0x0800b8ef     0xc  Code  Gb  association.o [20]
emZigbeeProApsEncryptPacket
                        0x0801b863    0x6c  Code  Gb  crypto.o [20]
emZigbeeProDecryptPacket
                        0x0801b93f    0x9a  Code  Gb  crypto.o [20]
emZigbeeProLibraryStatus
                        0x08025aa8     0x1  Data  Gb  leaf-routing-stub.o [20]
emZigbeeProNetworkEncryptFlatPacket
                        0x0801b8cf    0x52  Code  Gb  crypto.o [20]
emZigbeeSourceIeeeAddress
                        0x08017993    0x22  Code  Gb  zigbee-packet-header.o [20]
emZllDeviceAnnounceHandler
                        0x0801282f     0x2  Code  Gb  zll-stubs.o [21]
emZllInit               0x0801283d     0x2  Code  Gb  zll-stubs.o [21]
emZllLeaveCallback      0x08012821     0x2  Code  Gb  zll-stubs.o [21]
emZllLibraryStatus      0x08025add     0x1  Data  Gb  zll-stubs.o [21]
emZllOperationInProgress
                        0x08012827     0x4  Code  Gb  zll-stubs.o [21]
emZllScanComplete       0x0801281d     0x4  Code  Gb  zll-stubs.o [21]
emZllSendScanRequest    0x0801280f     0x4  Code  Gb  zll-stubs.o [21]
emZllStackStatusHandler
                        0x0801282b     0x4  Code  Gb  zll-stubs.o [21]
emZllTouchLinkEvent     0x20002cc8     0x8  Data  Gb  zll-stubs.o [21]
emZllTouchLinkEventHandler
                        0x0801280d     0x2  Code  Gb  zll-stubs.o [21]
emberAddOrUpdateKeyTableEntry
                        0x0801c07f    0x32  Code  Gb  aps-keys-full.o [19]
emberAddressTableEntryIsActive
                        0x08013ab1     0x4  Code  Gb  aps-retry.o [20]
emberAesHashSimple      0x0801cf07    0x2c  Code  Gb  aes-mmo.o [18]
emberAesMmoHashFinal    0x0801cf73    0xb2  Code  Gb  aes-mmo.o [18]
emberAesMmoHashInit     0x0801cf33     0x8  Code  Gb  aes-mmo.o [18]
emberAesMmoHashUpdate   0x0801cf3b    0x38  Code  Gb  aes-mmo.o [18]
emberAfAddToCurrentAppTasksCallback
                        0x0800e411    0x32  Code  Gb  end-device-support.o [1]
emberAfAllowNetworkWriteAttributeCallback
                        0x080055c9     0x4  Code  Gb  callback-stub.o [1]
emberAfAnalogDiscreteThresholds
                        0x08005f34    0x14  Data  Lc  util.o [1]
emberAfApsRetryOverride
                        0x20002201     0x1  Data  Gb  util.o [1]
emberAfBasicClusterResetToFactoryDefaultsCallback
                        0x0801d8b5    0x28  Code  Gb  basic.o [1]
emberAfBasicClusterServerCommandParse
                        0x0801acd5    0x16  Code  Gb  call-command-handler.o [1]
emberAfCheckForSleepCallback
                        0x0800dfc9    0x48  Code  Gb  idle-sleep-soc.o [1]
emberAfClearLinkKeyTableUponFormingOrJoining
                        0x20001b9f     0x1  Data  Gb  af-security-common.o [1]
emberAfClearReportTableCallback
                        0x08006413    0x1a  Code  Gb  reporting.o [1]
emberAfClearResponseData
                        0x0800565d    0x2c  Code  Gb  message.o [1]
emberAfClusterCount     0x080038bf    0x48  Code  Gb  attribute-storage.o [1]
emberAfClusterDefaultResponseCallback
                        0x08003361    0x2c  Code  Gb  attribute-storage.o [1]
emberAfClusterInitCallback
                        0x080055cd     0x2  Code  Gb  callback-stub.o [1]
emberAfClusterMessageSentCallback
                        0x0800338d    0x56  Code  Gb  attribute-storage.o [1]
emberAfClusterSecurityCustomCallback
                        0x080055cf     0x4  Code  Gb  callback-stub.o [1]
emberAfClusterSpecificCommandParse
                        0x0801ac39    0x9c  Code  Gb  call-command-handler.o [1]
emberAfCompareValues    0x08005e03    0xa6  Code  Gb  util.o [1]
emberAfConfigureReportingCommandCallback
                        0x08006127   0x130  Code  Gb  reporting.o [1]
emberAfConfigureReportingResponseCallback
                        0x080055d3     0x4  Code  Gb  callback-stub.o [1]
emberAfContainsClient   0x08003799     0x6  Code  Gb  attribute-storage.o [1]
emberAfContainsServer   0x0800378b     0x4  Code  Gb  attribute-storage.o [1]
emberAfCopyBigEndianEui64Argument
                        0x080088e1    0x20  Code  Gb  af-main-common.o [1]
emberAfCopyLongString   0x08005dd3    0x30  Code  Gb  util.o [1]
emberAfCopyString       0x08005da9    0x2a  Code  Gb  util.o [1]
emberAfDeactivateClientTick
                        0x0800765f     0x4  Code  Gb  af-event.o [1]
emberAfDeactivateClusterTick
                        0x08007649    0x16  Code  Gb  af-event.o [1]
emberAfDeactivateServerTick
                        0x08007663     0x4  Code  Gb  af-event.o [1]
emberAfDefaultResponseCallback
                        0x080055d7     0x4  Code  Gb  callback-stub.o [1]
emberAfDeliveryStatusCallback
                        0x080055db     0x2  Code  Gb  callback-stub.o [1]
emberAfDetermineIfLinkSecurityIsRequired
                        0x08005d37    0x18  Code  Gb  util.o [1]
emberAfDiscoverAttributesResponseCallback
                        0x080055dd     0x4  Code  Gb  callback-stub.o [1]
emberAfDiscoverCommandsGeneratedResponseCallback
                        0x080055e1     0x4  Code  Gb  callback-stub.o [1]
emberAfDiscoverCommandsReceivedResponseCallback
                        0x080055e5     0x4  Code  Gb  callback-stub.o [1]
emberAfEepromInitCallback
                        0x0801e4ad     0x2  Code  Gb  eeprom.o [1]
emberAfEndpointConfigure
                        0x080032a1    0x66  Code  Gb  attribute-storage.o [1]
emberAfEndpointCount    0x08003311     0x8  Code  Gb  attribute-storage.o [1]
emberAfEndpointEnableDisable
                        0x08003853    0x60  Code  Gb  attribute-storage.o [1]
emberAfEndpointFromIndex
                        0x080038b7     0x8  Code  Gb  attribute-storage.o [1]
emberAfEndpointIndexIsEnabled
                        0x08003319    0x10  Code  Gb  attribute-storage.o [1]
emberAfEndpointIsEnabled
                        0x0800383b    0x18  Code  Gb  attribute-storage.o [1]
emberAfEventControlSetDelay
                        0x080075a9    0x42  Code  Gb  af-event.o [1]
emberAfExternalAttributeReadCallback
                        0x080055e9     0x4  Code  Gb  callback-stub.o [1]
emberAfExternalAttributeWriteCallback
                        0x080055ed     0x4  Code  Gb  callback-stub.o [1]
emberAfExtractCommandIds
                        0x08003b5f    0x9a  Code  Gb  attribute-storage.o [1]
emberAfFillExternalBuffer
                        0x0800e177    0x2a  Code  Gb  client-api.o [1]
emberAfFillExternalManufacturerSpecificBuffer
                        0x0800e147    0x30  Code  Gb  client-api.o [1]
emberAfFindCluster      0x0800379f    0x24  Code  Gb  attribute-storage.o [1]
emberAfFindClusterFunction
                        0x08003b37    0x28  Code  Gb  attribute-storage.o [1]
emberAfFindClusterInType
                        0x0800374f    0x3c  Code  Lc  attribute-storage.o [1]
emberAfFindClusterServerEndpointIndex
                        0x080037c3     0x4  Code  Gb  attribute-storage.o [1]
emberAfFindClustersByDeviceAndEndpoint
                        0x08014bdb    0x38  Code  Gb  service-discovery-common.o [1]
emberAfFindDevicesByProfileAndCluster
                        0x08014b89    0x52  Code  Gb  service-discovery-common.o [1]
emberAfFindIeeeAddress  0x08014c1b    0x3c  Code  Gb  service-discovery-common.o [1]
emberAfFindNodeId       0x08014c57    0x3c  Code  Gb  service-discovery-common.o [1]
emberAfFindUnusedPanIdAndFormCallback
                        0x0800e601     0x4  Code  Gb  network-find.o [1]
emberAfFlush            0x08003ff1    0x14  Code  Gb  print.o [1]
emberAfForceEndDeviceToStayAwake
                        0x0801a2dd     0x6  Code  Gb  idle-sleep.o [1]
emberAfFormNetwork      0x0800894f     0x4  Code  Gb  af-main-common.o [1]
emberAfFormatMfgString  0x08008995    0x20  Code  Gb  af-main-common.o [1]
emberAfFuncArrayGroupsClusterServer
                        0x080201dc     0x4  Data  Gb  attribute-storage.o [1]
emberAfFuncArrayIdentifyClusterServer
                        0x080201d4     0x8  Data  Gb  attribute-storage.o [1]
emberAfFuncArrayLevelControlClusterServer
                        0x080201e8     0x8  Data  Gb  attribute-storage.o [1]
emberAfFuncArrayOnOffClusterServer
                        0x080201e4     0x4  Data  Gb  attribute-storage.o [1]
emberAfFuncArrayOtaBootloadClusterClient
                        0x080201f0     0x8  Data  Gb  attribute-storage.o [1]
emberAfFuncArrayScenesClusterServer
                        0x080201e0     0x4  Data  Gb  attribute-storage.o [1]
emberAfFuncArraySimpleMeteringClusterServer
                        0x080201f8     0x4  Data  Gb  attribute-storage.o [1]
emberAfGetAddressIndex  0x080041bd    0x24  Code  Gb  af-main-soc.o [1]
emberAfGetAddressTableSize
                        0x0800448b     0x4  Code  Gb  af-main-soc.o [1]
emberAfGetAttributeAnalogOrDiscreteType
                        0x08005ea9    0x18  Code  Gb  util.o [1]
emberAfGetBindingIndex  0x080041b9     0x4  Code  Gb  af-main-soc.o [1]
emberAfGetCommandApsFrame
                        0x0800e1ed     0x6  Code  Gb  client-api.o [1]
emberAfGetCurrentPollControlCallback
                        0x0800e4df    0x4e  Code  Gb  end-device-support.o [1]
emberAfGetCurrentPollIntervalMsCallback
                        0x0800e47d    0x5c  Code  Gb  end-device-support.o [1]
emberAfGetCurrentSleepControlCallback
                        0x0801a31f    0x30  Code  Gb  idle-sleep.o [1]
emberAfGetCurrentTime   0x08005ecb     0x4  Code  Gb  util.o [1]
emberAfGetCurrentTimeCallback
                        0x080055f1     0x4  Code  Gb  callback-stub.o [1]
emberAfGetDataSize      0x0800577d    0x1e  Code  Gb  attribute-size.o [1]
emberAfGetDefaultSleepControlCallback
                        0x0801a34f     0x6  Code  Gb  idle-sleep.o [1]
emberAfGetDifference    0x080058f9    0x30  Code  Gb  util.o [1]
emberAfGetEui64         0x08004461     0x8  Code  Gb  af-main-soc.o [1]
emberAfGetFormAndJoinExtendedPanIdCallback
                        0x0800e64f    0x1a  Code  Gb  network-find.o [1]
emberAfGetInt           0x080056f1    0x28  Code  Gb  message.o [1]
emberAfGetInt16u        0x0800571d     0xc  Code  Gb  message.o [1]
emberAfGetInt32u        0x08005719     0x4  Code  Gb  message.o [1]
emberAfGetKeyTableSize  0x08004487     0x4  Code  Gb  af-main-soc.o [1]
emberAfGetLongPollIntervalMsCallback
                        0x0800e459    0x12  Code  Gb  end-device-support.o [1]
emberAfGetMfgString     0x080041a5     0xc  Code  Gb  af-main-soc.o [1]
emberAfGetNetworkParameters
                        0x0800446d    0x16  Code  Gb  af-main-soc.o [1]
emberAfGetNodeId        0x080041b1     0x4  Code  Gb  af-main-soc.o [1]
emberAfGetNodeType      0x08004483     0x4  Code  Gb  af-main-soc.o [1]
emberAfGetNthCluster    0x08003907    0x4a  Code  Gb  attribute-storage.o [1]
emberAfGetShortPollIntervalMsCallback
                        0x0800e46b    0x12  Code  Gb  end-device-support.o [1]
emberAfGetSourceRouteOverheadCallback
                        0x080055f5     0x4  Code  Gb  callback-stub.o [1]
emberAfGetString        0x08005729    0x24  Code  Gb  message.o [1]
emberAfGroupsClusterAddGroupCallback
                        0x0800e72d    0x40  Code  Gb  groups-server.o [1]
emberAfGroupsClusterAddGroupIfIdentifyingCallback
                        0x0800e9eb    0x2a  Code  Gb  groups-server.o [1]
emberAfGroupsClusterEndpointInGroupCallback
                        0x0800ea2d     0x2  Code  Gb  groups-server.o [1]
emberAfGroupsClusterGetGroupMembershipCallback
                        0x0800e7c9   0x106  Code  Gb  groups-server.o [1]
emberAfGroupsClusterRemoveAllGroupsCallback
                        0x0800e971    0x7a  Code  Gb  groups-server.o [1]
emberAfGroupsClusterRemoveGroupCallback
                        0x0800e8dd    0x94  Code  Gb  groups-server.o [1]
emberAfGroupsClusterServerCommandParse
                        0x0801ad4d    0xc4  Code  Gb  call-command-handler.o [1]
emberAfGroupsClusterServerInitCallback
                        0x0800e6a5    0x24  Code  Gb  groups-server.o [1]
emberAfGroupsClusterViewGroupCallback
                        0x0800e76d    0x5c  Code  Gb  groups-server.o [1]
emberAfHalButtonIsrCallback
                        0x08002377    0x34  Code  Gb  IcontrolDimmableLampApp.o [1]
emberAfIdentifyClusterClientCommandParse
                        0x0801aceb    0x28  Code  Gb  call-command-handler.o [1]
emberAfIdentifyClusterIdentifyCallback
                        0x0801db51    0x18  Code  Gb  identify.o [1]
emberAfIdentifyClusterIdentifyQueryCallback
                        0x0801db69    0x36  Code  Gb  identify.o [1]
emberAfIdentifyClusterIdentifyQueryResponseCallback
                        0x0801d999    0x32  Code  Gb  ez-mode.o [1]
emberAfIdentifyClusterServerAttributeChangedCallback
                        0x0801db47     0xa  Code  Gb  identify.o [1]
emberAfIdentifyClusterServerCommandParse
                        0x0801ad1b    0x30  Code  Gb  call-command-handler.o [1]
emberAfIdentifyClusterServerInitCallback
                        0x0801db0d     0x2  Code  Gb  identify.o [1]
emberAfIdentifyClusterServerTickCallback
                        0x0801db0f    0x38  Code  Gb  identify.o [1]
emberAfIdentifyClusterServerTickCallbackControl1
                        0x20002438     0x8  Data  Gb  af-event.o [1]
emberAfIdentifyClusterServerTickCallbackWrapperFunction1
                        0x080074ed     0x8  Code  Gb  af-event.o [1]
emberAfIncomingZclSequenceNumber
                        0x20002200     0x1  Data  Gb  util.o [1]
emberAfIndexFromEndpoint
                        0x080038b3     0x4  Code  Gb  attribute-storage.o [1]
emberAfInit             0x08005987    0x58  Code  Gb  util.o [1]
emberAfInitializeAttributes
                        0x08003951     0x4  Code  Gb  attribute-storage.o [1]
emberAfInterpanSendMessageCallback
                        0x080055f9     0x4  Code  Gb  callback-stub.o [1]
emberAfInvalidImageId   0x08020168    0x10  Data  Gb  af-main-common.o [1]
emberAfIsDeviceEnabled  0x080058bd    0x18  Code  Gb  util.o [1]
emberAfIsDeviceIdentifying
                        0x080058d5    0x24  Code  Gb  util.o [1]
emberAfIsLongStringAttributeType
                        0x08003351    0x10  Code  Gb  attribute-storage.o [1]
emberAfIsOtaImageIdValid
                        0x0801cea7    0x12  Code  Gb  ota-storage-common.o [1]
emberAfIsStringAttributeType
                        0x08003341    0x10  Code  Gb  attribute-storage.o [1]
emberAfIsThisDataTypeAStringType
                        0x08003329    0x18  Code  Gb  attribute-storage.o [1]
emberAfIsTypeSigned     0x08005ec1     0xa  Code  Gb  util.o [1]
emberAfJoinNetwork      0x08008953    0x28  Code  Gb  af-main-common.o [1]
emberAfJoinableNetworkFoundCallback
                        0x0800e585    0x3e  Code  Gb  network-find.o [1]
emberAfLevelControlClusterMoveCallback
                        0x0801de69     0xa  Code  Gb  level-control.o [1]
emberAfLevelControlClusterMoveToLevelCallback
                        0x0801de4b     0xc  Code  Gb  level-control.o [1]
emberAfLevelControlClusterMoveToLevelWithOnOffCallback
                        0x0801de57     0xa  Code  Gb  level-control.o [1]
emberAfLevelControlClusterMoveWithOnOffCallback
                        0x0801de73     0x8  Code  Gb  level-control.o [1]
emberAfLevelControlClusterServerAttributeChangedCallback
                        0x0800227d    0x22  Code  Gb  IcontrolDimmableLampApp.o [1]
emberAfLevelControlClusterServerCommandParse
                        0x0801af8d    0xb8  Code  Gb  call-command-handler.o [1]
emberAfLevelControlClusterServerInitCallback
                        0x0801dd35     0x2  Code  Gb  level-control.o [1]
emberAfLevelControlClusterServerTickCallback
                        0x0801dd37    0xf2  Code  Gb  level-control.o [1]
emberAfLevelControlClusterServerTickCallbackControl1
                        0x20002440     0x8  Data  Gb  af-event.o [1]
emberAfLevelControlClusterServerTickCallbackWrapperFunction1
                        0x080074f5     0x8  Code  Gb  af-event.o [1]
emberAfLevelControlClusterStepCallback
                        0x0801de83     0xc  Code  Gb  level-control.o [1]
emberAfLevelControlClusterStepWithOnOffCallback
                        0x0801de8f     0xa  Code  Gb  level-control.o [1]
emberAfLevelControlClusterStopCallback
                        0x0801dea1     0x6  Code  Gb  level-control.o [1]
emberAfLevelControlClusterStopWithOnOffCallback
                        0x0801dea7     0x4  Code  Gb  level-control.o [1]
emberAfLocateAttributeMetadata
                        0x080034e1    0x32  Code  Gb  attribute-storage.o [1]
emberAfLongStringLength
                        0x08005767    0x16  Code  Gb  message.o [1]
emberAfMainInitCallback
                        0x08002855     0xc  Code  Gb  IcontrolDimmableLampApp.o [1]
emberAfMainStartCallback
                        0x08002861    0x1e  Code  Gb  IcontrolDimmableLampApp.o [1]
emberAfMainTickCallback
                        0x0800287f    0x10  Code  Gb  IcontrolDimmableLampApp.o [1]
emberAfMaximumApsPayloadLength
                        0x08005d4f    0x5a  Code  Gb  util.o [1]
emberAfMessageSentCallback
                        0x080055fd     0x4  Code  Gb  callback-stub.o [1]
emberAfNetworkEventControlGetActive
                        0x08007495     0x8  Code  Gb  multi-network.o [1]
emberAfNetworkEventControlSetDelay
                        0x0800749d     0x4  Code  Gb  multi-network.o [1]
emberAfNetworkEventControlSetDelayQS
                        0x080074a1     0x4  Code  Gb  multi-network.o [1]
emberAfNetworkEventControlSetInactive
                        0x0800748f     0x6  Code  Gb  multi-network.o [1]
emberAfNetworkIndexFromEndpoint
                        0x08007481     0xe  Code  Gb  multi-network.o [1]
emberAfNetworkState     0x080041b5     0x4  Code  Gb  af-main-soc.o [1]
emberAfNextSequence     0x08005bf3    0x10  Code  Gb  util.o [1]
emberAfOnOffClusterLevelControlEffectCallback
                        0x0801e179    0x6c  Code  Gb  level-control.o [1]
emberAfOnOffClusterOffCallback
                        0x0801dcc5     0xa  Code  Gb  on-off.o [1]
emberAfOnOffClusterOnCallback
                        0x0801dccf     0x8  Code  Gb  on-off.o [1]
emberAfOnOffClusterServerAttributeChangedCallback
                        0x0800229f    0x22  Code  Gb  IcontrolDimmableLampApp.o [1]
emberAfOnOffClusterServerCommandParse
                        0x0801af65    0x28  Code  Gb  call-command-handler.o [1]
emberAfOnOffClusterSetValueCallback
                        0x0801dc41    0x84  Code  Gb  on-off.o [1]
emberAfOnOffClusterToggleCallback
                        0x0801dcf5     0xa  Code  Gb  on-off.o [1]
emberAfOtaBootloadCallback
                        0x0801e679     0xa  Code  Gb  ota-bootload-soc.o [1]
emberAfOtaBootloadClusterClientDefaultResponseCallback
                        0x080162f9    0x1c  Code  Gb  ota-client.o [1]
emberAfOtaBootloadClusterClientInitCallback
                        0x08015e5d    0x54  Code  Gb  ota-client.o [1]
emberAfOtaBootloadClusterClientTickCallback
                        0x08015fc3     0x2  Code  Gb  ota-client.o [1]
emberAfOtaBootloadClusterClientTickCallbackControl1
                        0x20002448     0x8  Data  Gb  af-event.o [1]
emberAfOtaBootloadClusterClientTickCallbackWrapperFunction1
                        0x080074fd     0x8  Code  Gb  af-event.o [1]
emberAfOtaClientBootloadCallback
                        0x0801c779    0x20  Code  Gb  ota-client-policy.o [1]
emberAfOtaClientCustomVerifyCallback
                        0x0801c741    0x28  Code  Gb  ota-client-policy.o [1]
emberAfOtaClientDownloadCompleteCallback
                        0x0801c769    0x10  Code  Gb  ota-client-policy.o [1]
emberAfOtaClientIncomingMessageRawCallback
                        0x080162d7    0x22  Code  Gb  ota-client.o [1]
emberAfOtaClientStartCallback
                        0x08016041    0x12  Code  Gb  ota-client.o [1]
emberAfOtaClientVersionInfoCallback
                        0x0801c719    0x28  Code  Gb  ota-client-policy.o [1]
emberAfOtaStorageCheckTempDataCallback
                        0x0801c66b    0x58  Code  Gb  ota-storage-simple.o [1]
emberAfOtaStorageClearTempDataCallback
                        0x0801c64b     0xa  Code  Gb  ota-storage-simple.o [1]
emberAfOtaStorageDeleteImageCallback
                        0x0801c6cb    0x1a  Code  Gb  ota-storage-simple.o [1]
emberAfOtaStorageDriverDownloadFinishCallback
                        0x0801ccf1    0x10  Code  Gb  ota-storage-eeprom.o [1]
emberAfOtaStorageDriverInitCallback
                        0x0801cb7f    0x26  Code  Gb  ota-storage-eeprom.o [1]
emberAfOtaStorageDriverInvalidateImageCallback
                        0x0801ca6f    0x22  Code  Gb  ota-storage-eeprom-page-erase.o [1]
emberAfOtaStorageDriverMaxDownloadSizeCallback
                        0x0801cd01     0x6  Code  Gb  ota-storage-eeprom.o [1]
emberAfOtaStorageDriverPrepareToResumeDownloadCallback
                        0x0801cabf    0x30  Code  Gb  ota-storage-eeprom-page-erase.o [1]
emberAfOtaStorageDriverReadCallback
                        0x0801cc93    0x12  Code  Gb  ota-storage-eeprom.o [1]
emberAfOtaStorageDriverRetrieveLastStoredOffsetCallback
                        0x0801ca91    0x2e  Code  Gb  ota-storage-eeprom-page-erase.o [1]
emberAfOtaStorageDriverWriteCallback
                        0x0801cca5    0x42  Code  Gb  ota-storage-eeprom.o [1]
emberAfOtaStorageFinishDownloadCallback
                        0x0801c641     0xa  Code  Gb  ota-storage-simple.o [1]
emberAfOtaStorageGetFullHeaderCallback
                        0x0801c491    0x2a  Code  Gb  ota-storage-simple.o [1]
emberAfOtaStorageInitCallback
                        0x0801c3e9    0x2e  Code  Gb  ota-storage-simple.o [1]
emberAfOtaStorageIteratorFirstCallback
                        0x0801c46b    0x1e  Code  Gb  ota-storage-simple.o [1]
emberAfOtaStorageIteratorNextCallback
                        0x0801c489     0x8  Code  Gb  ota-storage-simple.o [1]
emberAfOtaStorageReadImageDataCallback
                        0x0801c607    0x3a  Code  Gb  ota-storage-simple.o [1]
emberAfOtaStorageSearchCallback
                        0x0801c417    0x54  Code  Gb  ota-storage-simple.o [1]
emberAfOtaStorageWriteTempDataCallback
                        0x0801c655    0x16  Code  Gb  ota-storage-simple.o [1]
emberAfPartnerLinkKeyExchangeRequestCallback
                        0x08005601     0x4  Code  Gb  callback-stub.o [1]
emberAfPartnerLinkKeyExchangeResponseCallback
                        0x08005605     0x2  Code  Gb  callback-stub.o [1]
emberAfPerformingKeyEstablishmentCallback
                        0x08005607     0x4  Code  Gb  callback-stub.o [1]
emberAfPluginAddressTableAddCommand
                        0x08020029    0x10  Code  Gb  address-table-cli.o [1]
emberAfPluginAddressTableAddEntry
                        0x0800e207    0x34  Code  Gb  address-table-soc.o [1]
emberAfPluginAddressTableInitCallback
                        0x0800e205     0x2  Code  Gb  address-table-soc.o [1]
emberAfPluginAddressTableLookupByEui64
                        0x0800e255    0x3a  Code  Gb  address-table-soc.o [1]
emberAfPluginAddressTableLookupCommand
                        0x08020055    0x10  Code  Gb  address-table-cli.o [1]
emberAfPluginAddressTableRemoveCommand
                        0x08020039    0x10  Code  Gb  address-table-cli.o [1]
emberAfPluginAddressTableRemoveEntry
                        0x0800e23b    0x1a  Code  Gb  address-table-soc.o [1]
emberAfPluginBasicResetToFactoryDefaultsCallback
                        0x08014b85     0x2  Code  Gb  IControlDimmableLamp_callbacks.o [1]
emberAfPluginCountersClear
                        0x0800e32b     0xa  Code  Gb  counters-soc.o [1]
emberAfPluginCountersInitCallback
                        0x0800e291     0xc  Code  Gb  counters-soc.o [1]
emberAfPluginCountersPrint
                        0x0801eaa5     0x2  Code  Lc  counters-cli.o [1]
emberAfPluginCountersPrintCommand
                        0x0801ea75     0xe  Code  Gb  counters-cli.o [1]
emberAfPluginCountersPrintThresholdsCommand
                        0x0801eaa3     0x2  Code  Gb  counters-cli.o [1]
emberAfPluginCountersResetThresholds
                        0x0800e335     0xa  Code  Gb  counters-soc.o [1]
emberAfPluginCountersRolloverCallback
                        0x0800560b     0x2  Code  Gb  callback-stub.o [1]
emberAfPluginCountersSendRequestCommand
                        0x0801ea85     0x2  Code  Gb  counters-cli.o [1]
emberAfPluginCountersSetThreshold
                        0x0800e33f     0x8  Code  Gb  counters-soc.o [1]
emberAfPluginCountersSetThresholdCommand
                        0x0801ea87    0x1c  Code  Gb  counters-cli.o [1]
emberAfPluginCountersSimplePrintCommand
                        0x0801ea83     0x2  Code  Gb  counters-cli.o [1]
emberAfPluginEepromBusy
                        0x0801e49f     0xe  Code  Gb  eeprom.o [1]
emberAfPluginEepromErase
                        0x0801e45d    0x42  Code  Gb  eeprom.o [1]
emberAfPluginEepromFlushSavedPartialWrites
                        0x0801e3f9    0x4a  Code  Gb  eeprom.o [1]
emberAfPluginEepromGetWordSize
                        0x0801e289    0x26  Code  Gb  eeprom.o [1]
emberAfPluginEepromInfo
                        0x0801e301     0xe  Code  Gb  eeprom.o [1]
emberAfPluginEepromInit
                        0x0801e2af    0x52  Code  Gb  eeprom.o [1]
emberAfPluginEepromRead
                        0x0801e443    0x1a  Code  Gb  eeprom.o [1]
emberAfPluginEepromWrite
                        0x0801e31d    0xdc  Code  Gb  eeprom.o [1]
emberAfPluginEndDeviceSupportForceShortPollCommand
                        0x0801eacd    0x20  Code  Gb  end-device-support-cli.o [1]
emberAfPluginEndDeviceSupportInitCallback
                        0x0800e3ed    0x24  Code  Gb  end-device-support.o [1]
emberAfPluginEndDeviceSupportMoveNetworkEventControls
                        0x20002460     0x8  Data  Gb  af-event.o [1]
emberAfPluginEndDeviceSupportMoveNetworkEventHandler
                        0x08015d71    0x48  Code  Gb  end-device-move.o [1]
emberAfPluginEndDeviceSupportMoveNetworkEventWrapper0
                        0x080074c7     0x8  Code  Gb  af-event.o [1]
emberAfPluginEndDeviceSupportPollCompletedCallback
                        0x0800560d     0x2  Code  Gb  callback-stub.o [1]
emberAfPluginEndDeviceSupportPollCompletedCallbackCommand
                        0x0801eaed     0xe  Code  Gb  end-device-support-cli.o [1]
emberAfPluginEndDeviceSupportPollingNetworkEventControls
                        0x20002458     0x8  Data  Gb  af-event.o [1]
emberAfPluginEndDeviceSupportPollingNetworkEventHandler
                        0x0800dfad    0x14  Code  Gb  polling-soc.o [1]
emberAfPluginEndDeviceSupportPollingNetworkEventWrapper0
                        0x080074bf     0x8  Code  Gb  af-event.o [1]
emberAfPluginEndDeviceSupportStackStatusCallback
                        0x08015dc9    0x30  Code  Gb  end-device-move.o [1]
emberAfPluginEndDeviceSupportStatusCommand
                        0x0801eaa9    0x24  Code  Gb  end-device-support-cli.o [1]
emberAfPluginEzmodeCommissioningClientCompleteCallback
                        0x0800560f     0x2  Code  Gb  callback-stub.o [1]
emberAfPluginEzmodeCommissioningStateEventControl
                        0x200028a8     0x8  Data  Gb  ez-mode.o [1]
emberAfPluginEzmodeCommissioningStateEventHandler
                        0x0801d909    0x90  Code  Gb  ez-mode.o [1]
emberAfPluginGroupsServerGetGroupNameCallback
                        0x08005611     0x2  Code  Gb  callback-stub.o [1]
emberAfPluginGroupsServerGroupNamesSupportedCallback
                        0x08005613     0x4  Code  Gb  callback-stub.o [1]
emberAfPluginGroupsServerSetGroupNameCallback
                        0x08005617     0x2  Code  Gb  callback-stub.o [1]
emberAfPluginIdentifyFeedbackProvideFeedbackEventControl
                        0x20002378     0x8  Data  Gb  IControlDimmableLamp_callbacks.o [1]
emberAfPluginIdentifyFeedbackProvideFeedbackEventControl
                        0x200023ac     0x8  Data  Gb  IcontrolDimmableLampApp.o [1]
emberAfPluginIdentifyFeedbackProvideFeedbackEventHandler
                        0x08014b75     0x2  Code  Gb  IControlDimmableLamp_callbacks.o [1]
emberAfPluginIdentifyStartFeedbackCallback
                        0x0800233b    0x1e  Code  Gb  IcontrolDimmableLampApp.o [1]
emberAfPluginIdentifyStopFeedbackCallback
                        0x08002359    0x1e  Code  Gb  IcontrolDimmableLampApp.o [1]
emberAfPluginIdleSleepActiveCallback
                        0x08005619     0x2  Code  Gb  callback-stub.o [1]
emberAfPluginIdleSleepAwakeWhenNotJoinedCommand
                        0x0801eb99     0xe  Code  Gb  idle-sleep-cli.o [1]
emberAfPluginIdleSleepOkToIdleCallback
                        0x0800561b     0x4  Code  Gb  callback-stub.o [1]
emberAfPluginIdleSleepStatusCommand
                        0x0801eb85     0x2  Code  Gb  idle-sleep-cli.o [1]
emberAfPluginIdleSleepStayAwakeCommand
                        0x0801eb87    0x12  Code  Gb  idle-sleep-cli.o [1]
emberAfPluginNetworkFindFinishedCallback
                        0x080023ab    0x20  Code  Gb  IcontrolDimmableLampApp.o [1]
emberAfPluginNetworkFindInitCallback
                        0x0800e53d    0x18  Code  Gb  network-find.o [1]
emberAfPluginNetworkFindJoinCallback
                        0x0800561f     0x4  Code  Gb  callback-stub.o [1]
emberAfPluginNetworkFindStackStatusCallback
                        0x0800e627    0x28  Code  Gb  network-find.o [1]
emberAfPluginNetworkFindTickEventControl
                        0x20002950     0x8  Data  Gb  network-find.o [1]
emberAfPluginNetworkFindTickEventHandler
                        0x0800e5cd    0x2a  Code  Gb  network-find.o [1]
emberAfPluginOtaClientStackStatusCallback
                        0x08015f01    0x22  Code  Gb  ota-client.o [1]
emberAfPluginOtaStorageSimpleEepromEraseCompleteCallback
                        0x08015fa9    0x1a  Code  Gb  ota-client.o [1]
emberAfPluginOtaStorageSimpleEepromPageEraseEventControl
                        0x2000296c     0x8  Data  Gb  ota-storage-eeprom.o [1]
emberAfPluginOtaStorageSimpleEepromPageEraseEventHandler
                        0x0801c9ab     0xc  Code  Gb  ota-storage-eeprom-page-erase.o [1]
emberAfPluginPwmControlInitCallback
                        0x080028a9    0x64  Code  Gb  pwm-control.o [1]
emberAfPluginReportingConfigureReportedAttribute
                        0x08006591   0x10c  Code  Gb  reporting.o [1]
emberAfPluginReportingConfiguredCallback
                        0x08005623     0x4  Code  Gb  callback-stub.o [1]
emberAfPluginReportingInitCallback
                        0x08005f85     0x2  Code  Gb  reporting.o [1]
emberAfPluginReportingTickEventControl
                        0x20002994     0x8  Data  Gb  reporting.o [1]
emberAfPluginReportingTickEventHandler
                        0x08005f87   0x184  Code  Gb  reporting.o [1]
emberAfPluginScenesServerEntriesInUse
                        0x20002fc4     0x1  Data  Gb  scenes.o [1]
emberAfPluginScenesServerParseAddScene
                        0x0801a887   0x1bc  Code  Gb  scenes.o [1]
emberAfPluginScenesServerParseViewScene
                        0x0801aa67    0xde  Code  Gb  scenes.o [1]
emberAfPopNetworkIndex  0x08007467     0x4  Code  Gb  multi-network.o [1]
emberAfPostAttributeChangeCallback
                        0x08005627     0x2  Code  Gb  callback-stub.o [1]
emberAfPreAttributeChangeCallback
                        0x08005629     0x2  Code  Gb  callback-stub.o [1]
emberAfPreCommandReceivedCallback
                        0x0800562b     0x4  Code  Gb  callback-stub.o [1]
emberAfPreMessageReceivedCallback
                        0x08014b81     0x4  Code  Gb  IControlDimmableLamp_callbacks.o [1]
emberAfPreZDOMessageReceivedCallback
                        0x0800562f     0x4  Code  Gb  callback-stub.o [1]
emberAfPrimaryEndpointForCurrentNetworkIndex
                        0x0800746d     0x2  Code  Gb  multi-network.o [1]
emberAfPrint            0x08004011     0xa  Code  Gb  print.o [1]
emberAfPrint8ByteBlocks
                        0x0801e91b    0x4e  Code  Gb  print-formatter.o [1]
emberAfPrintActiveArea  0x20002fa4     0x2  Data  Gb  print.o [1]
emberAfPrintAllOff      0x08004071     0x4  Code  Gb  print.o [1]
emberAfPrintAllOn       0x0800406b     0x6  Code  Gb  print.o [1]
emberAfPrintAttributeTable
                        0x08002b67    0xaa  Code  Gb  attribute-table.o [1]
emberAfPrintBigEndianEui64
                        0x0801e8d3    0x24  Code  Gb  print-formatter.o [1]
emberAfPrintBuffer      0x0801e8c9     0xa  Code  Gb  print-formatter.o [1]
emberAfPrintEnabled     0x08003f81    0x1c  Code  Gb  print.o [1]
emberAfPrintOff         0x080040a3     0xe  Code  Gb  print.o [1]
emberAfPrintOn          0x08004095     0xe  Code  Gb  print.o [1]
emberAfPrintReceivedMessages
                        0x20001b9c     0x1  Data  Gb  af-main-common.o [1]
emberAfPrintStatus      0x08004025    0x46  Code  Gb  print.o [1]
emberAfPrintTime        0x08005ed3     0x2  Code  Gb  util.o [1]
emberAfPrintln          0x08004005     0xc  Code  Gb  print.o [1]
emberAfProcessMessage   0x08005a87   0x16c  Code  Gb  util.o [1]
emberAfPushCallbackNetworkIndex
                        0x08007451     0x4  Code  Gb  multi-network.o [1]
emberAfPushEndpointNetworkIndex
                        0x08007455    0x12  Code  Gb  multi-network.o [1]
emberAfPushNetworkIndex
                        0x0800744b     0x6  Code  Gb  multi-network.o [1]
emberAfPutBlockInResp   0x080056cf    0x22  Code  Gb  message.o [1]
emberAfPutInt16uInResp  0x0800569f     0xe  Code  Gb  message.o [1]
emberAfPutInt32uInResp  0x080056ad    0x1c  Code  Gb  message.o [1]
emberAfPutInt8uInResp   0x08005689    0x16  Code  Gb  message.o [1]
emberAfPwmSetValuePA6   0x08002929    0x1c  Code  Gb  pwm-control.o [1]
emberAfPwmSetValuePB7   0x0800290d    0x1c  Code  Gb  pwm-control.o [1]
emberAfReadAttribute    0x08002a29    0x14  Code  Gb  attribute-table.o [1]
emberAfReadAttributesResponseCallback
                        0x08005633     0x4  Code  Gb  callback-stub.o [1]
emberAfReadClientAttribute
                        0x08002a49     0xa  Code  Gb  attribute-table.o [1]
emberAfReadReportingConfigurationCommandCallback
                        0x08006267   0x196  Code  Gb  reporting.o [1]
emberAfReadReportingConfigurationResponseCallback
                        0x08005637     0x4  Code  Gb  callback-stub.o [1]
emberAfReadSequentialAttributesAddToResponse
                        0x08002a71    0xf6  Code  Gb  attribute-table.o [1]
emberAfReadServerAttribute
                        0x08002a3d     0xc  Code  Gb  attribute-table.o [1]
emberAfRegistrationAbortCallback
                        0x0800563b     0x2  Code  Gb  callback-stub.o [1]
emberAfRegistrationStartCallback
                        0x0800563d     0x4  Code  Gb  callback-stub.o [1]
emberAfRemoteDeleteBindingPermissionCallback
                        0x08005641     0x4  Code  Gb  callback-stub.o [1]
emberAfRemoteSetBindingPermissionCallback
                        0x08005645     0x4  Code  Gb  callback-stub.o [1]
emberAfRemoveFromCurrentAppTasksCallback
                        0x0800e443    0x16  Code  Gb  end-device-support.o [1]
emberAfReportAttributesCallback
                        0x08005649     0x4  Code  Gb  callback-stub.o [1]
emberAfReportingAttributeChangeCallback
                        0x08006443    0x9e  Code  Gb  reporting.o [1]
emberAfResetAttributes  0x08003955     0x2  Code  Gb  attribute-storage.o [1]
emberAfResponseApsFrame
                        0x200028e8     0xc  Data  Gb  message.o [1]
emberAfResponseDestination
                        0x200028e4     0x2  Data  Gb  message.o [1]
emberAfResponseType     0x20002202     0x1  Data  Gb  util.o [1]
emberAfRetrieveAttributeAndCraftResponse
                        0x08002c11    0x92  Code  Gb  attribute-table.o [1]
emberAfRunEvents        0x08007523    0x18  Code  Gb  af-event.o [1]
emberAfScanErrorCallback
                        0x0800e5f7     0xa  Code  Gb  network-find.o [1]
emberAfScenesClusterAddSceneCallback
                        0x0801a467    0x1a  Code  Gb  scenes.o [1]
emberAfScenesClusterGetSceneMembershipCallback
                        0x0801a627    0xc0  Code  Gb  scenes.o [1]
emberAfScenesClusterMakeInvalidCallback
                        0x0801a42b    0x16  Code  Gb  scenes.o [1]
emberAfScenesClusterRecallSavedSceneCallback
                        0x0801a7d5    0x6e  Code  Gb  scenes.o [1]
emberAfScenesClusterRecallSceneCallback
                        0x0801a60b    0x1c  Code  Gb  scenes.o [1]
emberAfScenesClusterRemoveAllScenesCallback
                        0x0801a519    0x7a  Code  Gb  scenes.o [1]
emberAfScenesClusterRemoveSceneCallback
                        0x0801a48d    0x82  Code  Gb  scenes.o [1]
emberAfScenesClusterRemoveScenesInGroupCallback
                        0x0801ab4d    0x66  Code  Gb  scenes.o [1]
emberAfScenesClusterServerCommandParse
                        0x0801ae25   0x12e  Code  Gb  call-command-handler.o [1]
emberAfScenesClusterServerInitCallback
                        0x0801a3b3    0x14  Code  Gb  scenes.o [1]
emberAfScenesClusterStoreCurrentSceneCallback
                        0x0801a6f3    0xda  Code  Gb  scenes.o [1]
emberAfScenesClusterStoreSceneCallback
                        0x0801a5c5    0x3e  Code  Gb  scenes.o [1]
emberAfScenesClusterViewSceneCallback
                        0x0801a481     0xc  Code  Gb  scenes.o [1]
emberAfScenesMakeValid  0x0801a3db    0x4a  Code  Gb  scenes.o [1]
emberAfScenesSetSceneCountAttribute
                        0x0801a3c7    0x14  Code  Gb  scenes.o [1]
emberAfScheduleClientTickExtended
                        0x0800761d     0xe  Code  Gb  af-event.o [1]
emberAfSchedulePollEventCallback
                        0x0800df51    0x4e  Code  Gb  polling-soc.o [1]
emberAfScheduleServerTick
                        0x0800763d     0xc  Code  Gb  af-event.o [1]
emberAfScheduleServerTickExtended
                        0x0800762b     0xc  Code  Gb  af-event.o [1]
emberAfScheduleTickExtended
                        0x080075eb    0x32  Code  Gb  af-event.o [1]
emberAfSecurityInitCallback
                        0x0800564d     0x2  Code  Gb  callback-stub.o [1]
emberAfSendBroadcast    0x08008537     0xe  Code  Gb  af-main-common.o [1]
emberAfSendBroadcastWithCallback
                        0x08008513     0xc  Code  Gb  af-main-common.o [1]
emberAfSendCommandBroadcastWithCallback
                        0x0800e1d1     0xe  Code  Gb  client-api.o [1]
emberAfSendCommandUnicast
                        0x0800e1cd     0x4  Code  Gb  client-api.o [1]
emberAfSendCommandUnicastToBindingsWithCallback
                        0x0800e1a1    0x16  Code  Gb  client-api.o [1]
emberAfSendCommandUnicastWithCallback
                        0x0800e1b7    0x16  Code  Gb  client-api.o [1]
emberAfSendDefaultResponse
                        0x08005d33     0x4  Code  Gb  util.o [1]
emberAfSendDefaultResponseWithCallback
                        0x08005cb7    0x7c  Code  Gb  util.o [1]
emberAfSendEndDeviceBind
                        0x080041e1    0x20  Code  Gb  af-main-soc.o [1]
emberAfSendImmediateDefaultResponse
                        0x08005cb3     0x4  Code  Gb  util.o [1]
emberAfSendImmediateDefaultResponseWithCallback
                        0x08005ca7     0xc  Code  Gb  util.o [1]
emberAfSendMulticast    0x08008505     0xe  Code  Gb  af-main-common.o [1]
emberAfSendMulticastWithCallback
                        0x080084f5    0x10  Code  Gb  af-main-common.o [1]
emberAfSendResponse     0x08005ca3     0x4  Code  Gb  util.o [1]
emberAfSendResponseWithCallback
                        0x08005c19    0x8a  Code  Gb  util.o [1]
emberAfSendUnicast      0x0800858d    0x12  Code  Gb  af-main-common.o [1]
emberAfSendUnicastToBindingsWithCallback
                        0x0800859f    0x60  Code  Gb  af-main-common.o [1]
emberAfSendUnicastWithCallback
                        0x08008545    0x48  Code  Gb  af-main-common.o [1]
emberAfSequenceNumber   0x20002220     0x1  Data  Gb  util.o [1]
emberAfSetAddressTableEntry
                        0x08005ed5    0x38  Code  Gb  util.o [1]
emberAfSetCommandEndpoints
                        0x0800e1f3     0xc  Code  Gb  client-api.o [1]
emberAfSetDefaultSleepControlCallback
                        0x0801a355     0x6  Code  Gb  idle-sleep.o [1]
emberAfSetExternalBuffer
                        0x0800e139     0xe  Code  Gb  client-api.o [1]
emberAfSetFormAndJoinExtendedPanIdCallback
                        0x0800e669    0x1a  Code  Gb  network-find.o [1]
emberAfSetNoReplyForNextMessage
                        0x08005c03    0x16  Code  Gb  util.o [1]
emberAfSetTime          0x08005ecf     0x4  Code  Gb  util.o [1]
emberAfSetTimeCallback  0x0800564f     0x2  Code  Gb  callback-stub.o [1]
emberAfSimpleMeteringClusterGetProfileCallback
                        0x0801e223     0x4  Code  Gb  simple-metering-server.o [1]
emberAfSimpleMeteringClusterRequestFastPollModeCallback
                        0x0801e227    0x54  Code  Gb  simple-metering-server.o [1]
emberAfSimpleMeteringClusterServerCommandParse
                        0x0801b06b    0x56  Code  Gb  call-command-handler.o [1]
emberAfSimpleMeteringClusterServerInitCallback
                        0x0801e1f9    0x10  Code  Gb  simple-metering-server.o [1]
emberAfSimpleMeteringClusterServerTickCallback
                        0x0801e209     0x8  Code  Gb  simple-metering-server.o [1]
emberAfSimpleMeteringClusterServerTickCallbackControl1
                        0x20002450     0x8  Data  Gb  af-event.o [1]
emberAfSimpleMeteringClusterServerTickCallbackWrapperFunction1
                        0x08007505     0x8  Code  Gb  af-event.o [1]
emberAfStackDown        0x08005a01    0x1e  Code  Gb  util.o [1]
emberAfStackStatusCallback
                        0x080023df    0xbc  Code  Gb  IcontrolDimmableLampApp.o [1]
emberAfStartMoveCallback
                        0x08015d3f    0x16  Code  Gb  end-device-move.o [1]
emberAfStartSearchForJoinableNetworkCallback
                        0x0800e605    0x22  Code  Gb  network-find.o [1]
emberAfStopMoveCallback
                        0x08015d55    0x1c  Code  Gb  end-device-move.o [1]
emberAfStringLength     0x0800575d     0xa  Code  Gb  message.o [1]
emberAfTick             0x080059df    0x22  Code  Gb  util.o [1]
emberAfTrustCenterJoinCallback
                        0x08005651     0x2  Code  Gb  callback-stub.o [1]
emberAfTrustCenterKeepaliveAbortCallback
                        0x08005653     0x2  Code  Gb  callback-stub.o [1]
emberAfUnusedPanIdFoundCallback
                        0x0800e555    0x30  Code  Gb  network-find.o [1]
emberAfVerifyAttributeWrite
                        0x08002a07    0x22  Code  Gb  attribute-table.o [1]
emberAfWriteAttribute   0x080029bf    0x1a  Code  Gb  attribute-table.o [1]
emberAfWriteAttributeExternal
                        0x0800296d    0x52  Code  Gb  attribute-table.o [1]
emberAfWriteAttributesResponseCallback
                        0x08005655     0x4  Code  Gb  callback-stub.o [1]
emberAfWriteServerAttribute
                        0x080029d9     0xa  Code  Gb  attribute-table.o [1]
emberAllocateLinkedBuffers
                        0x0800aff3    0xbc  Code  Gb  packet-buffer.o [20]
emberAppLinkKeyRequestPolicy
                        0x20002080     0x1  Data  Gb  ember-configuration.o [1]
emberAppendPgmStringToLinkedBuffers
                        0x0800b2e9    0x14  Code  Gb  packet-buffer.o [20]
emberAppendSourceRouteHandler
                        0x08010295     0x4  Code  Gb  ember-configuration.o [1]
emberAppendToLinkedBuffers
                        0x0800b2e5     0x4  Code  Gb  packet-buffer.o [20]
emberApsAckTimeoutMs    0x20002078     0x2  Data  Gb  ember-configuration.o [1]
emberBindingIsActive    0x08013aad     0x4  Code  Gb  aps-retry.o [20]
emberBindingTableSize   0x20002060     0x1  Data  Gb  ember-configuration.o [1]
emberBootloadTransmitCompleteHandler
                        0x08010289     0x2  Code  Gb  ember-configuration.o [1]
emberCalibrateCurrentChannel
                        0x08009571     0xc  Code  Gb  analogue.o [20]
emberCalibrateVref      0x0800927f    0x1e  Code  Gb  analogue.o [20]
emberChildId            0x08013e25     0x2  Code  Gb  child-stub.o [20]
emberChildIndex         0x08019749    0x40  Code  Gb  child-table.o [20]
emberChildTableSize     0x2000202c     0x1  Data  Gb  ember-configuration.o [1]
emberClearBindingTable  0x0800af9f    0x2c  Code  Gb  binding-table.o [4]
emberClearKeyTable      0x0801c2cd    0x4a  Code  Gb  aps-keys-full.o [19]
emberCommandActionHandler
                        0x08016b65    0x16  Code  Gb  core-cli.o [1]
emberCommandArgumentCount
                        0x08008e47     0xa  Code  Gb  command-interpreter2.o [1]
emberCommandErrorHandler
                        0x080090ad    0x6e  Code  Gb  command-interpreter2.o [1]
emberCommandErrorNames  0x20001fdc    0x20  Data  Gb  command-interpreter2.o [1]
emberCommandInterpreter2Configuration
                        0x20002fb3     0x1  Data  Gb  command-interpreter2.o [1]
emberCommandReaderInit  0x08008a55    0x28  Code  Gb  command-interpreter2.o [1]
emberCommandTable       0x08024e34   0x208  Data  Gb  cli.o [1]
emberCommandTableBsendCommandArguments
                        0x20001f60     0x8  Data  Gb  cli.o [1]
emberCommandTableChangekeyCommands
                        0x08024df8    0x3c  Data  Gb  cli.o [1]
emberCommandTableChangekeyLinkCommandArguments
                        0x20001f50     0x8  Data  Gb  cli.o [1]
emberCommandTableChangekeyNetworkCommandArguments
                        0x20001f58     0x8  Data  Gb  cli.o [1]
emberCommandTableDebugprintCommands
                        0x08024d80    0x78  Data  Gb  cli.o [1]
emberCommandTableDebugprintOffCommandArguments
                        0x20001f40     0x8  Data  Gb  cli.o [1]
emberCommandTableDebugprintOnCommandArguments
                        0x20001f48     0x8  Data  Gb  cli.o [1]
emberCommandTableEchoCommandArguments
                        0x20001f68     0x8  Data  Gb  cli.o [1]
emberCommandTableEndpointCommands
                        0x08024d30    0x50  Data  Gb  cli.o [1]
emberCommandTableEndpointDisableCommandArguments
                        0x20001f30     0x8  Data  Gb  cli.o [1]
emberCommandTableEndpointEnableCommandArguments
                        0x20001f38     0x8  Data  Gb  cli.o [1]
emberCommandTableInterpanCommands
                        0x08024ce0    0x50  Data  Gb  cli.o [1]
emberCommandTableInterpanGroupCommandArguments
                        0x20001efc    0x10  Data  Gb  cli.o [1]
emberCommandTableInterpanLongCommandArguments
                        0x20001f0c    0x14  Data  Gb  cli.o [1]
emberCommandTableInterpanShortCommandArguments
                        0x20001f20    0x10  Data  Gb  cli.o [1]
emberCommandTableKeysCommands
                        0x08024c90    0x50  Data  Gb  cli.o [1]
emberCommandTableKeysDeleteCommandArguments
                        0x20001ef4     0x8  Data  Gb  cli.o [1]
emberCommandTableNetworkBroadPjoinCommandArguments
                        0x20001ea0     0x8  Data  Gb  cli.o [1]
emberCommandTableNetworkChangeChannelCommandArguments
                        0x20001ea8     0x8  Data  Gb  cli.o [1]
emberCommandTableNetworkCommands
                        0x08024b8c   0x104  Data  Gb  cli.o [1]
emberCommandTableNetworkExtpanidCommandArguments
                        0x20001eb0     0x8  Data  Gb  cli.o [1]
emberCommandTableNetworkFormCommandArguments
                        0x20001eb8    0x10  Data  Gb  cli.o [1]
emberCommandTableNetworkJoinCommandArguments
                        0x20001ec8    0x10  Data  Gb  cli.o [1]
emberCommandTableNetworkPjoinCommandArguments
                        0x20001ed8     0x8  Data  Gb  cli.o [1]
emberCommandTableNetworkRejoinCommandArguments
                        0x20001ee0     0xc  Data  Gb  cli.o [1]
emberCommandTableNetworkSetCommandArguments
                        0x20001eec     0x8  Data  Gb  cli.o [1]
emberCommandTableOptionCommands
                        0x08024a74    0xdc  Data  Gb  cli.o [1]
emberCommandTableOptionDiscCommandArguments
                        0x20001e6c     0xc  Data  Gb  cli.o [1]
emberCommandTableOptionEdbCommandArguments
                        0x20001e78     0x8  Data  Gb  cli.o [1]
emberCommandTableOptionInstallCodeCommandArguments
                        0x20001e80    0x10  Data  Gb  cli.o [1]
emberCommandTableOptionLinkCommandArguments
                        0x20001e90    0x10  Data  Gb  cli.o [1]
emberCommandTablePluginCommands
                        0x080247e0   0x118  Data  Gb  cli.o [1]
emberCommandTablePrintCommands
                        0x0802436c    0x3c  Data  Gb  cli.o [1]
emberCommandTableRawCommandArguments
                        0x20001f70     0xc  Data  Gb  cli.o [1]
emberCommandTableReadCommandArguments
                        0x20001f7c    0x14  Data  Gb  cli.o [1]
emberCommandTableSecurityCommands
                        0x08024344    0x28  Data  Gb  cli.o [1]
emberCommandTableSendCommandArguments
                        0x20001f90    0x10  Data  Gb  cli.o [1]
emberCommandTableSendMulticastCommandArguments
                        0x20001fa0     0xc  Data  Gb  cli.o [1]
emberCommandTableTimesyncCommandArguments
                        0x20001fac    0x10  Data  Gb  cli.o [1]
emberCommandTableWriteCommandArguments
                        0x20001fbc    0x1c  Data  Gb  cli.o [1]
emberCommandTableZclCommands
                        0x0802427c    0x8c  Data  Gb  cli.o [1]
emberCommandTableZclMfgCodeCommandArguments
                        0x20001d80     0x8  Data  Gb  cli.o [1]
emberCommandTableZclTimeCommandArguments
                        0x20001d88     0x8  Data  Gb  cli.o [1]
emberCommandTableZdoActiveCommandArguments
                        0x20001c10     0x8  Data  Gb  cli.o [1]
emberCommandTableZdoBindCommandArguments
                        0x20001c18    0x1c  Data  Gb  cli.o [1]
emberCommandTableZdoCommands
                        0x08023f34   0x12c  Data  Gb  cli.o [1]
emberCommandTableZdoIeeeCommandArguments
                        0x20001c34     0x8  Data  Gb  cli.o [1]
emberCommandTableZdoLeaveCommandArguments
                        0x20001c3c    0x10  Data  Gb  cli.o [1]
emberCommandTableZdoMatchCommandArguments
                        0x20001c4c     0xc  Data  Gb  cli.o [1]
emberCommandTableZdoNodeCommandArguments
                        0x20001c58     0x8  Data  Gb  cli.o [1]
emberCommandTableZdoNwkCommandArguments
                        0x20001c60     0x8  Data  Gb  cli.o [1]
emberCommandTableZdoPowerCommandArguments
                        0x20001c68     0x8  Data  Gb  cli.o [1]
emberCommandTableZdoRouteCommandArguments
                        0x20001c70     0xc  Data  Gb  cli.o [1]
emberCommandTableZdoSimpleCommandArguments
                        0x20001c7c     0xc  Data  Gb  cli.o [1]
emberCopyBufferBytes    0x0800b59d    0x64  Code  Gb  packet-buffer.o [20]
emberCopyLinkedBuffers  0x0800b407    0x3e  Code  Gb  packet-buffer.o [20]
emberCopyStringArgument
                        0x08008f29    0x48  Code  Gb  command-interpreter2.o [1]
emberCounterHandler     0x0800e29d    0x8e  Code  Gb  counters-soc.o [1]
emberCounters           0x200027ac    0x44  Data  Gb  counters-soc.o [1]
emberCountersThresholds
                        0x200027f0    0x44  Data  Gb  counters-soc.o [1]
emberCurrentCommand     0x200027a8     0x4  Data  Gb  command-interpreter2.o [1]
emberCurrentStackTasks  0x08008173    0x62  Code  Gb  zigbee-stack.o [20]
emberDebugAssert        0x0800db35     0xa  Code  Gb  debug.o [20]
emberDebugHandler       0x0801028f     0x2  Code  Gb  ember-configuration.o [1]
emberDebugPrintf        0x0800dbdb    0x5c  Code  Gb  debug.o [20]
emberDebugReportRestore
                        0x0800dbd5     0x6  Code  Gb  debug.o [20]
emberDeleteBinding      0x0800ad7d    0x40  Code  Gb  binding-table.o [4]
emberEmbernetPassthroughSourceAddress
                        0x20002374     0x2  Data  Gb  mac-header.o [20]
emberEndDeviceBindRequest
                        0x0800a9a5    0xd4  Code  Gb  zigbee-device-library.o [1]
emberEndDevicePollTimeout
                        0x20002089     0x1  Data  Gb  ember-configuration.o [1]
emberEndDevicePollTimeoutShift
                        0x2000208a     0x1  Data  Gb  ember-configuration.o [1]
emberEndpointCount      0x20002490     0x1  Data  Gb  attribute-storage.o [1]
emberEnergyScanRequest  0x08018975    0x60  Code  Gb  zigbee-device-util.o [20]
emberEnergyScanResultHandler
                        0x0800450b    0x12  Code  Gb  af-main-soc.o [1]
emberFetchLowHighInt16u
                        0x0800b541     0xc  Code  Gb  packet-buffer.o [20]
emberFillLinkedBuffers  0x0800b1d1    0x34  Code  Gb  packet-buffer.o [20]
emberFillStackBuffer    0x0800b191    0x40  Code  Gb  packet-buffer.o [20]
emberFindAndRejoinNetwork
                        0x0800bb8b     0x2  Code  Gb  association.o [20]
emberFindAndRejoinNetworkWithReason
                        0x0800bb8d    0x7c  Code  Gb  association.o [20]
emberFindKeyTableEntry  0x0801c0b1    0x80  Code  Gb  aps-keys-full.o [19]
emberFormAndJoinCleanup
                        0x0800cf95    0x1c  Code  Gb  form-and-join.o [1]
emberFormAndJoinEnergyScanResultHandler
                        0x0800cf31    0x1a  Code  Gb  form-and-join.o [1]
emberFormAndJoinIsScanning
                        0x0800cf4b    0x10  Code  Gb  form-and-join.o [1]
emberFormAndJoinNetworkFoundHandler
                        0x0800ce8d    0xa4  Code  Gb  form-and-join.o [1]
emberFormAndJoinScanCompleteHandler
                        0x0800ce23    0x6a  Code  Gb  form-and-join.o [1]
emberFragmentWindowSize
                        0x2000207a     0x1  Data  Gb  ember-configuration.o [1]
emberGenerateRandomKey  0x080099d5    0x12  Code  Gb  ember-stack-common.o [20]
emberGetAddressTableRemoteEui64
                        0x0800a587    0x1c  Code  Gb  address-table.o [20]
emberGetAddressTableRemoteNodeId
                        0x0800a5a3     0xe  Code  Gb  address-table.o [20]
emberGetBinding         0x0800acdb    0x16  Code  Gb  binding-table.o [4]
emberGetBindingIndex    0x0800a211    0x10  Code  Gb  application-support.o [20]
emberGetBindingRemoteNodeId
                        0x0800aca3     0xa  Code  Gb  binding-table.o [4]
emberGetCallbackNetwork
                        0x0800782f     0x4  Code  Gb  ember-multi-network-stub.o [14]
emberGetChildData       0x08013e27     0x4  Code  Gb  child-stub.o [20]
emberGetCurrentNetwork  0x0800782b     0x4  Code  Gb  ember-multi-network-stub.o [14]
emberGetCurrentSecurityState
                        0x08015027    0x3e  Code  Gb  aps-security.o [18]
emberGetEndpoint        0x0800427b    0x2a  Code  Gb  af-main-soc.o [1]
emberGetEndpointCluster
                        0x080042ed    0x46  Code  Gb  af-main-soc.o [1]
emberGetEndpointDescription
                        0x080042a5    0x48  Code  Gb  af-main-soc.o [1]
emberGetExtendedPanId   0x0800caf1    0x16  Code  Gb  association.o [20]
emberGetExtendedSecurityBitmask
                        0x08015013    0x14  Code  Gb  aps-security.o [18]
emberGetExtendedTimeout
                        0x0800a7b1    0x34  Code  Gb  address-table.o [20]
emberGetKey             0x08014481    0xf0  Code  Gb  aps-keys.o [18]
emberGetKeyTableEntry   0x0801c06b    0x14  Code  Gb  aps-keys-full.o [19]
emberGetLastHopLqi      0x0800a461     0x4  Code  Gb  zigbee-dispatch.o [20]
emberGetLastHopRssi     0x0800a465     0x2  Code  Gb  zigbee-dispatch.o [20]
emberGetLibraryStatus   0x08011269    0x3a  Code  Gb  ember-library.o [20]
emberGetLinkedBuffersByte
                        0x0800b3f1     0xa  Code  Gb  packet-buffer.o [20]
emberGetLinkedBuffersLowHighInt16u
                        0x0800b555    0x14  Code  Gb  packet-buffer.o [20]
emberGetLinkedBuffersPointer
                        0x0800b3a1    0x30  Code  Gb  packet-buffer.o [20]
emberGetMfgSecurityConfig
                        0x0801bf5b    0x44  Code  Gb  security-config-mfg-3xx.o [18]
emberGetNetworkParameters
                        0x08009961    0x56  Code  Gb  ember-stack-common.o [20]
emberGetNodeId          0x08008275     0x8  Code  Gb  zigbee-stack.o [20]
emberGetNodeType        0x0800cab5    0x3c  Code  Gb  association.o [20]
emberGetPanId           0x08008285     0x8  Code  Gb  zigbee-stack.o [20]
emberGetParentEui64     0x080098b9     0x8  Code  Gb  ember-stack-common.o [20]
emberGetParentNodeId    0x080098b1     0x8  Code  Gb  ember-stack-common.o [20]
emberGetRadioChannel    0x08009a2b     0x8  Code  Gb  ember-stack-common.o [20]
emberGetSender          0x0800a46f    0x10  Code  Gb  zigbee-dispatch.o [20]
emberHaveLinkKey        0x08014827    0x14  Code  Gb  aps-keys.o [18]
emberIdConflictHandler  0x080102a1     0x2  Code  Gb  ember-configuration.o [1]
emberIeeeAddressRequest
                        0x08018969     0xc  Code  Gb  zigbee-device-util.o [20]
emberIncomingBootloadMessageHandler
                        0x08010287     0x2  Code  Gb  ember-configuration.o [1]
emberIncomingManyToOneRouteRequestHandler
                        0x08010299     0x2  Code  Gb  ember-configuration.o [1]
emberIncomingMessageHandler
                        0x08004373    0x48  Code  Gb  af-main-soc.o [1]
emberIncomingRouteErrorHandler
                        0x0801029b     0x2  Code  Gb  ember-configuration.o [1]
emberIncomingRouteRecordHandler
                        0x08010293     0x2  Code  Gb  ember-configuration.o [1]
emberInit               0x08007f65   0x100  Code  Gb  zigbee-stack.o [20]
emberIsZllNetwork       0x08012831     0x4  Code  Gb  zll-stubs.o [21]
emberJoinNetwork        0x0800b8fb    0x50  Code  Gb  association.o [20]
emberJoinableNetworkFoundHandler
                        0x0800891b    0x1e  Code  Gb  af-main-common.o [1]
emberKeyTableSize       0x2000207b     0x1  Data  Gb  ember-configuration.o [1]
emberLeaveNetwork       0x08018ce3    0x18  Code  Gb  leave.o [20]
emberLeaveRequest       0x08018c77    0x24  Code  Gb  zigbee-device-common.o [1]
emberLookupEui64ByNodeId
                        0x0800820f    0x66  Code  Gb  zigbee-stack.o [20]
emberLookupNodeIdByEui64
                        0x080081dd    0x32  Code  Gb  zigbee-stack.o [20]
emberMacFilterMatchMessageHandler
                        0x0801028b     0x2  Code  Gb  ember-configuration.o [1]
emberMacIndirectTimeout
                        0x20002086     0x2  Data  Gb  ember-configuration.o [1]
emberMacPassthroughFilterHandler
                        0x080102a3     0x4  Code  Gb  ember-configuration.o [1]
emberMacPassthroughFlags
                        0x20002372     0x1  Data  Gb  mac-header.o [20]
emberMarkTaskIdle       0x080031fb    0x74  Code  Gb  event-control.o [20]
emberMatchDescriptorsRequest
                        0x0800a895   0x108  Code  Gb  zigbee-device-library.o [1]
emberMaximumApsPayloadLength
                        0x0800a1b5    0x12  Code  Gb  application-support.o [20]
emberMessageBufferContents
                        0x0800afdd     0xc  Code  Gb  packet-buffer.o [20]
emberMessageSentHandler
                        0x080043bb    0x3e  Code  Gb  af-main-soc.o [1]
emberMobileNodePollTimeout
                        0x20002088     0x1  Data  Gb  ember-configuration.o [1]
emberMsToNextEvent      0x0800315f     0x4  Code  Gb  event-control.o [20]
emberMsToNextEventExtended
                        0x08003115    0x4a  Code  Gb  event-control.o [20]
emberMultiNetworkCounters
                        0x20002834    0x24  Data  Gb  counters-soc.o [1]
emberMulticastTable     0x20002040     0x4  Data  Gb  ember-configuration.o [1]
emberMulticastTableSize
                        0x20002044     0x1  Data  Gb  ember-configuration.o [1]
emberNetworkAddressRequest
                        0x08018965     0x4  Code  Gb  zigbee-device-util.o [20]
emberNetworkFoundHandler
                        0x080044cd    0x2a  Code  Gb  af-main-soc.o [1]
emberNetworkInitExtended
                        0x0800badf    0xac  Code  Gb  association.o [20]
emberNetworkState       0x0800993f     0xc  Code  Gb  ember-stack-common.o [20]
emberNextZigDevRequestSequence
                        0x08018ba5     0xe  Code  Gb  zigbee-device-common.o [1]
emberOrphanNotificationHandler
                        0x0801029d     0x2  Code  Gb  ember-configuration.o [1]
emberPendingAckedMessages
                        0x08013af3    0x32  Code  Gb  aps-retry.o [20]
emberPermitJoining      0x0800b8b7    0x38  Code  Gb  association.o [20]
emberPollCompleteHandler
                        0x0800dfc1     0x6  Code  Gb  polling-soc.o [1]
emberPollForData        0x0801204d    0x50  Code  Gb  network.o [20]
emberPollHandler        0x08010291     0x2  Code  Gb  ember-configuration.o [1]
emberPrintCommandTable  0x08009091    0x1c  Code  Gb  command-interpreter2.o [1]
emberPrintCommandUsage  0x0800903d    0x38  Code  Gb  command-interpreter2.o [1]
emberPrintCommandUsageNotes
                        0x0800907d     0xe  Code  Gb  command-interpreter2.o [1]
emberProcessCommandString
                        0x08008abb   0x176  Code  Gb  command-interpreter2.o [1]
emberRadioNeedsCalibratingHandler
                        0x080102a7     0x4  Code  Gb  ember-configuration.o [1]
emberRawTransmitCompleteHandler
                        0x0801028d     0x2  Code  Gb  ember-configuration.o [1]
emberRemoteDeleteBindingHandler
                        0x0800425b    0x20  Code  Gb  af-main-soc.o [1]
emberRemoteSetBindingHandler
                        0x08004201    0x5a  Code  Gb  af-main-soc.o [1]
emberRequestLinkKey     0x08014853    0xd0  Code  Gb  aps-keys.o [18]
emberReservedMobileChildEntries
                        0x20002fb9     0x1  Data  Gb  ember-configuration.o [1]
emberReverseMemCopy     0x080099e7    0x1a  Code  Gb  ember-stack-common.o [20]
emberRunEvents          0x08003163    0x2c  Code  Gb  event-control.o [20]
emberRunTask            0x0800318f    0x28  Code  Gb  event-control.o [20]
emberScanCompleteHandler
                        0x080044f7    0x14  Code  Gb  af-main-soc.o [1]
emberScanErrorHandler   0x08008939    0x16  Code  Gb  af-main-common.o [1]
emberScanForJoinableNetwork
                        0x0800cd69    0x44  Code  Gb  form-and-join.o [1]
emberScanForNextJoinableNetwork
                        0x0800cdad    0x76  Code  Gb  form-and-join.o [1]
emberSecurityLevel      0x080098c1     0x8  Code  Gb  ember-stack-common.o [20]
emberSendBroadcast      0x08009def    0x44  Code  Gb  application-support.o [20]
emberSendMulticast      0x08009e39    0x54  Code  Gb  application-support.o [20]
emberSendRemoveDevice   0x08019bbf    0x6e  Code  Gb  trust-center-util.o [18]
emberSendUnicast        0x08009d37    0xb8  Code  Gb  application-support.o [20]
emberSendZigDevBindRequest
                        0x08018beb    0x74  Code  Gb  zigbee-device-common.o [1]
emberSendZigDevRequest  0x0800aa99    0x40  Code  Gb  zigbee-device-library.o [1]
emberSendZigDevRequestTarget
                        0x08018bb9    0x14  Code  Gb  zigbee-device-common.o [1]
emberSerialBufferTick   0x08007e89     0x2  Code  Gb  serial.o [1]
emberSerialGuaranteedPrintf
                        0x08007e3f    0x3c  Code  Gb  serial.o [1]
emberSerialInit         0x08007bfd    0x72  Code  Gb  serial.o [1]
emberSerialPrintCarriageReturn
                        0x08007d35     0x4  Code  Gb  serial.o [1]
emberSerialPrintf       0x08007d5d    0x10  Code  Gb  serial.o [1]
emberSerialPrintfLine   0x08007d6d    0x1c  Code  Gb  serial.o [1]
emberSerialPrintfVarArg
                        0x08007d39    0x24  Code  Gb  serial.o [1]
emberSerialReadAvailable
                        0x08007c6f    0x16  Code  Gb  serial.o [1]
emberSerialReadByte     0x08007c85    0x8c  Code  Gb  serial.o [1]
emberSerialWaitSend     0x08007e1d    0x22  Code  Gb  serial.o [1]
emberSerialWriteData    0x08007d8d    0x90  Code  Gb  serial.o [1]
emberSetAddressTableRemoteEui64
                        0x0800a4ad    0x82  Code  Gb  address-table.o [20]
emberSetAddressTableRemoteNodeId
                        0x0800a52f    0x58  Code  Gb  address-table.o [20]
emberSetBinding         0x0800acf1    0x5e  Code  Gb  binding-table.o [4]
emberSetBindingRemoteNodeId
                        0x0800acad    0x2e  Code  Gb  binding-table.o [4]
emberSetExtendedSecurityBitmask
                        0x08014fed    0x26  Code  Gb  aps-security.o [18]
emberSetExtendedTimeout
                        0x0800a7ed    0x28  Code  Gb  address-table.o [20]
emberSetInitialSecurityState
                        0x08014ef9    0xf4  Code  Gb  aps-security.o [18]
emberSetLinkedBuffersByte
                        0x0800b3fb     0xc  Code  Gb  packet-buffer.o [20]
emberSetLinkedBuffersLength
                        0x0800b369    0x24  Code  Gb  packet-buffer.o [20]
emberSetLinkedBuffersLowHighInt16u
                        0x0800b571    0x16  Code  Gb  packet-buffer.o [20]
emberSetMessageBufferLength
                        0x0800afe9     0xa  Code  Gb  packet-buffer.o [20]
emberSetMfgSecurityConfig
                        0x0801bf05    0x56  Code  Gb  security-config-mfg-3xx.o [18]
emberSetRadioChannel    0x0800ca6d    0x48  Code  Gb  association.o [20]
emberSetRadioPower      0x08009a19    0x12  Code  Gb  ember-stack-common.o [20]
emberSetTxPowerMode     0x0800929d    0xb4  Code  Gb  analogue.o [20]
emberSignedCommandArgument
                        0x08008ed3    0x22  Code  Gb  command-interpreter2.o [1]
emberSimpleDescriptorRequest
                        0x08018bcd    0x16  Code  Gb  zigbee-device-common.o [1]
emberStackIsPerformingRejoin
                        0x0800b789    0x1a  Code  Gb  association.o [20]
emberStackIsUp          0x0800994b    0x16  Code  Gb  ember-stack-common.o [20]
emberStackProfile       0x08008295     0x8  Code  Gb  zigbee-stack.o [20]
emberStackStatusHandler
                        0x08004333    0x14  Code  Gb  af-main-soc.o [1]
emberStackTokenChangedHandler
                        0x0801029f     0x2  Code  Gb  ember-configuration.o [1]
emberStartScan          0x08019349    0xa2  Code  Gb  scan.o [20]
emberStartWritingStackTokens
                        0x08015cbf    0x24  Code  Gb  token-cache.o [20]
emberStoreLowHighInt16u
                        0x0800b54d     0x8  Code  Gb  packet-buffer.o [20]
emberStringCommandArgument
                        0x08008ef5    0x28  Code  Gb  command-interpreter2.o [1]
emberSwitchNetworkKeyHandler
                        0x08010283     0x2  Code  Gb  ember-configuration.o [1]
emberTableRequest       0x08018c5f    0x18  Code  Gb  zigbee-device-common.o [1]
emberTaskInit           0x080031b7    0x44  Code  Gb  event-control.o [20]
emberTick               0x08008065   0x10e  Code  Gb  zigbee-stack.o [20]
emberTrustCenterJoinHandler
                        0x08016abb    0x22  Code  Gb  af-trust-center.o [1]
emberTrustCenterLinkKeyRequestPolicy
                        0x20002fb7     0x1  Data  Gb  ember-configuration.o [1]
emberUnsignedCommandArgument
                        0x08008ecf     0x4  Code  Gb  command-interpreter2.o [1]
emberUnusedPanIdFoundHandler
                        0x08008901    0x1a  Code  Gb  af-main-common.o [1]
emberVersion            0x08025aa0     0x8  Data  Gb  ember-version.o [20]
emberZigbeeKeyEstablishmentHandler
                        0x08010285     0x2  Code  Gb  ember-configuration.o [1]
emberZigbeeLeave        0x08018d87     0x8  Code  Gb  leave.o [20]
emberZigbeeRemoveChild  0x08018f55    0x3c  Code  Gb  leave.o [20]
enableDisableEndpoint   0x08016c3d    0x20  Code  Gb  core-cli.o [1]
enableJoinNetworkFlag   0x20001b47     0x1  Data  Lc  IcontrolDimmableLampApp.o [1]
enablementBytes         0x200021ac     0x1  Data  Lc  print.o [1]
encryptNonce            0x0801b4f3    0x24  Code  Lc  crypto.o [20]
endEraseOffset          0x20002968     0x4  Data  Lc  ota-storage-eeprom-page-erase.o [1]
endpointPrint           0x08016c1b    0x22  Code  Gb  core-cli.o [1]
energyScanComplete      0x0800ccc5    0x72  Code  Lc  form-and-join.o [1]
energyScanMaxRssiDetected
                        0x200022b7     0x1  Data  Lc  scan.o [20]
energyScanResultsBuffer
                        0x200022b6     0x1  Data  Lc  scan.o [20]
eraseKeyTableEntry      0x0801f9d7    0x14  Code  Gb  zcl-cli.o [1]
eraseOperation          0x0801c8ad    0x70  Code  Lc  ota-storage-eeprom-page-erase.o [1]
erased                  0x20002faa     0x1  Data  Lc  sim-eeprom-internal.o [12]
errors                  0x2000214b     0x1  Data  Lc  ota-client.o [1]
euiLookupErrorOccurred  0x080161db     0xa  Code  Lc  ota-client.o [1]
eventStartTime          0x20002e24     0x4  Data  Lc  retry.o [20]
executeCallback         0x08014d0f    0x20  Code  Lc  service-discovery-common.o [1]
extendedPanIdCache      0x200028c4     0x8  Data  Lc  form-and-join.o [1]
extendedPanIds          0x20002958     0x8  Data  Lc  network-find.o [1]
ezModeState             0x200028a5     0x1  Data  Lc  ez-mode.o [1]
ezmodeClientCluster     0x200028b2     0x2  Data  Lc  ez-mode.o [1]
ezmodeClientEndpoint    0x200028a1     0x1  Data  Lc  ez-mode.o [1]
fastPollEndTimeUtcTable
                        0x20002bc4     0x4  Data  Lc  simple-metering-server.o [1]
fastXtalStartup         0x200022d4     0x1  Data  Gb  clocks.o [12]
fault                   0x0801eb13          Code  Gb  faults.o [1]
fibToEmberStatus        0x080173a4     0x8  Data  Lc  flash.o [12]
filterForceReCal        0x20002264     0x1  Data  Gb  analogue.o [20]
findBroadcastTableEntry
                        0x08012841    0x46  Code  Lc  broadcast.o [20]
findClusterEndpointIndex
                        0x080037c7    0x48  Code  Lc  attribute-storage.o [1]
findDatagramDestination
                        0x0801364d   0x112  Code  Lc  aps-retry.o [20]
findEventContext        0x0800753b    0x34  Code  Lc  af-event.o [1]
findIndexFromEndpoint   0x0800380f    0x2c  Code  Lc  attribute-storage.o [1]
findJoinableNetworkCommand
                        0x0801ed71     0x4  Code  Gb  network-cli.o [1]
findLongAddressEntry    0x0800a5b1    0x4a  Code  Lc  address-table.o [20]
findNeighborIndex       0x08013e97    0x36  Code  Lc  neighbor.o [20]
findUnusedPanIdCommand  0x0801ed75     0x4  Code  Gb  network-cli.o [1]
finishNetworkShutdown   0x08018dc5    0x7e  Code  Lc  leave.o [20]
finishPendingAckedMessage
                        0x080137ed   0x188  Code  Lc  aps-retry.o [20]
finishSetChannel        0x0800ca15    0x44  Code  Lc  association.o [20]
firstByteOfArg          0x08008c5b    0x18  Code  Lc  command-interpreter2.o [1]
fixedEepromInfo         0x20002528    0x18  Data  Gb  bootloader-interface-app.o [1]
flashEraseIsActive      0x20002fd7     0x1  Data  Gb  flash.o [12]
forceSleepTmrCnt        0x20002bc8     0x1  Data  Gb  sleep.o [1]
formAndJoinAllocateBuffer
                        0x08019f99    0x1c  Code  Gb  form-and-join-node-adapter.o [1]
formAndJoinGetNetworkPointer
                        0x08019f85     0xc  Code  Gb  form-and-join-node-adapter.o [1]
formAndJoinReleaseBuffer
                        0x08019fc9    0x18  Code  Gb  form-and-join-node-adapter.o [1]
formAndJoinScanType     0x200028b8     0x1  Data  Lc  form-and-join.o [1]
formAndJoinSetBufferLength
                        0x08019fb5    0x14  Code  Gb  form-and-join-node-adapter.o [1]
formAndJoinSetCleanupTimeout
                        0x08019f91     0x8  Code  Gb  form-and-join-node-adapter.o [1]
formAndJoinStackProfile
                        0x08019f81     0x4  Code  Gb  form-and-join-node-adapter.o [1]
forwardTunneledCommand  0x08015263    0xa6  Code  Lc  aps-security.o [18]
fragmentDelay           0x200022a2     0x1  Data  Lc  aps-retry.o [20]
framePendingSetInOutgoingAck
                        0x20002cd2     0x2  Data  Lc  phy.o [20]
freePtr                 0x20002fac     0x2  Data  Lc  sim-eeprom-internal.o [12]
freelist                0x20002286     0x1  Data  Lc  packet-buffer.o [20]
generateCreatorInfo     0x080105c9    0x22  Code  Lc  sim-eeprom-internal.o [12]
generatedAttributes     0x08003cb0   0x1ec  Data  Gb  attribute-storage.o [1]
generatedClusters       0x08003e9c    0xdc  Data  Gb  attribute-storage.o [1]
generatedCommands       0x08003c04    0xac  Data  Gb  attribute-storage.o [1]
generatedDefaults       0x08020178    0x5c  Data  Gb  attribute-storage.o [1]
generatedEmberAfEndpointTypes
                        0x08003308     0x8  Data  Gb  attribute-storage.o [1]
getBeaconPayload        0x0800b745    0x44  Code  Lc  association.o [20]
getByteMaskIndexFromEeprom
                        0x0801c9b7    0x56  Code  Lc  ota-storage-eeprom-page-erase.o [1]
getCurrentOffset        0x08015fd7    0x2c  Code  Lc  ota-client.o [1]
getKeyFromCli           0x08014e61    0x2a  Code  Lc  af-security-common.o [1]
getLinkKeyFromCli       0x08014e8b     0x4  Code  Gb  af-security-common.o [1]
getLittleEndianInt16uFromBlock
                        0x0801c6f1     0xc  Code  Lc  ota-storage-simple.o [1]
getLittleEndianInt32uFromBlock
                        0x0801c6fd    0x16  Code  Lc  ota-storage-simple.o [1]
getManufacturerCode     0x08003513    0x1e  Code  Lc  attribute-storage.o [1]
getMultiNetworkTokenAddress
                        0x08015ba1    0x24  Code  Lc  token-cache.o [20]
getNestedCommand        0x08008c31    0x1c  Code  Lc  command-interpreter2.o [1]
getNonvolatileBinding   0x0800ab2d    0x2a  Code  Lc  binding-table.o [4]
getOutputFifoSpace      0x08007d11    0x18  Code  Lc  serial.o [1]
getRandomBackoff        0x0800f16d    0x40  Code  Gb  phy-common.o [20]
getSetMfgToken          0x0801f28d    0x34  Code  Gb  security-cli.o [1]
getState                0x0801dd19    0x1c  Code  Lc  level-control.o [1]
getTrustCenterToken     0x08014673     0xc  Code  Lc  aps-keys.o [18]
globalApsFrame          0x20002c28     0xc  Data  Gb  zcl-cli.o [1]
gpioCfgPowerDown        0x200020f4     0xc  Data  Gb  micro.o [1]
gpioCfgPowerUp          0x200020e8     0xc  Data  Gb  micro.o [1]
gpioOutPowerDown        0x200020e0     0x4  Data  Gb  micro.o [1]
gpioOutPowerUp          0x200020dc     0x4  Data  Gb  micro.o [1]
gpioRadioPowerBoardMask
                        0x20002100     0x4  Data  Gb  micro.o [1]
guardRegionPlaceHolder  0x20000d80    0x20  Data  Gb  cstartup-iar-common.o [1]
halAdcCalibrate         0x0800473f    0x4a  Code  Gb  adc.o [1]
halAdcIsr               0x08004551    0x64  Code  Gb  adc.o [1]
halAppAddressTable      0x08002000    0xac  Data  Gb  cstartup-iar-common.o [1]
halAppBootloaderEraseRawStorage
                        0x0801e5f9    0x24  Code  Gb  bootloader-interface-app.o [1]
halAppBootloaderImageIsValid
                        0x0801e587    0x2e  Code  Gb  bootloader-interface-app.o [1]
halAppBootloaderImageIsValidReset
                        0x0801e55d    0x2a  Code  Gb  bootloader-interface-app.o [1]
halAppBootloaderInfo    0x0801e50f    0x4e  Code  Gb  bootloader-interface-app.o [1]
halAppBootloaderInit    0x0801e4ed    0x22  Code  Gb  bootloader-interface-app.o [1]
halAppBootloaderInstallNewImage
                        0x0801e5b5    0x18  Code  Gb  bootloader-interface-app.o [1]
halAppBootloaderReadRawStorage
                        0x0801e5e3    0x16  Code  Gb  bootloader-interface-app.o [1]
halAppBootloaderStorageBusy
                        0x0801e61d    0x1c  Code  Gb  bootloader-interface-app.o [1]
halAppBootloaderWriteRawStorage
                        0x0801e5cd    0x16  Code  Gb  bootloader-interface-app.o [1]
halBaseBandIsr          0x0801ebac          Code  Wk  isr-stubs.o [1]
halBootloaderAddressTable
                        0x08000000    0x54  Data  Gb  cstartup-iar-common.o [1]
halBootloaderGetInstalledType
                        0x0801e99d     0x6  Code  Gb  bootloader-interface.o [1]
halBusFaultIsr          0x0801eb09          Code  Gb  faults.o [1]
halButtonIsr            0x080089cd     0x4  Code  Gb  af-main-common.o [1]
halButtonPinState       0x0800d2dd    0x22  Code  Gb  button.o [1]
halClearLed             0x0801ba51    0x24  Code  Gb  led.o [1]
halCommonBlockUntilXtal
                        0x08007171    0x76  Code  Gb  clocks.o [12]
halCommonCalibratePads  0x08007241    0x20  Code  Gb  micro-common-internal.o [12]
halCommonCrc16          0x0801b3c9    0x24  Code  Gb  crc.o [1]
halCommonDelayMicroseconds
                        0x08007333    0x36  Code  Gb  micro-common-internal.o [12]
halCommonDelayMilliseconds
                        0x08007369    0x1c  Code  Gb  micro-common-internal.o [12]
halCommonGetInt16uMillisecondTick
                        0x08002e69     0xa  Code  Gb  system-timer.o [12]
halCommonGetInt16uQuarterSecondTick
                        0x08002e73     0xc  Code  Gb  system-timer.o [12]
halCommonGetInt32uMillisecondTick
                        0x08002e7f    0x30  Code  Gb  system-timer.o [12]
halCommonGetRandom      0x0800f9b1    0x1c  Code  Gb  random.o [1]
halCommonIdleForMilliseconds
                        0x08002ebd    0x72  Code  Gb  system-timer.o [12]
halCommonMemCompare     0x0800585d    0x1c  Code  Gb  mem-util.o [1]
halCommonMemCopy        0x080057c9    0x86  Code  Gb  mem-util.o [1]
halCommonMemPGMCompare  0x08005879    0x1c  Code  Gb  mem-util.o [1]
halCommonMemSet         0x0800584f     0xe  Code  Gb  mem-util.o [1]
halCommonSwitchToXtal   0x080070ef     0x4  Code  Gb  clocks.o [12]
halCommonTryToSwitchToXtal
                        0x08006fc9    0xdc  Code  Gb  clocks.o [12]
halConvertValueToVolts  0x08004789    0x4c  Code  Gb  adc.o [1]
halDebugIsr             0x08011153    0xd2  Code  Gb  debug-jtag.o [20]
halDebugMonitorIsr      0x0801eb0f          Code  Gb  faults.o [1]
halEntryPoint           0x0801fdf5     0xc  Code  Gb  cstartup-iar.o [12]
halEntryPointMain       0x0801fe01   0x128  Code  Gb  cstartup-iar.o [12]
halFixedAddressTable    0x08040000    0x2c  Data  Gb  cstartup-iar-common.o [1]
halGetEm2xxResetInfo    0x080049bd    0x42  Code  Gb  micro.o [1]
halGetExtendedBootloaderVersion
                        0x0801e9a3    0x34  Code  Gb  bootloader-interface.o [1]
halGetExtendedResetInfo
                        0x08007f41     0x6  Code  Gb  cstartup-iar-common.o [1]
halGetRadioHoldOff      0x08004a05     0x6  Code  Gb  micro.o [1]
halGetResetInfo         0x08007f39     0x8  Code  Gb  cstartup-iar-common.o [1]
halHardFaultIsr         0x0801eb07          Code  Gb  faults.o [1]
halInit                 0x080047f5    0x5e  Code  Gb  micro.o [1]
halInternalAssertFailed
                        0x08004a81    0x2e  Code  Gb  diagnostic.o [1]
halInternalAssertFault  0x08004a7d     0x4  Code  Lc  diagnostic.o [1]
halInternalCStackBottom
                        0x20002298     0x4  Data  Lc  micro-internal.o [12]
halInternalCalibrateFastRc
                        0x08002f97     0x4  Code  Gb  micro-common.o [1]
halInternalClassifyReset
                        0x08007ed1    0x68  Code  Gb  cstartup-iar-common.o [1]
halInternalClocksCalibrateFastRc
                        0x08006f4f    0x30  Code  Gb  clocks.o [12]
halInternalClocksCalibrateSlowRc
                        0x08006ecd    0x82  Code  Gb  clocks.o [12]
halInternalConfigFlashAccess
                        0x08006ded     0xa  Code  Gb  clocks.o [12]
halInternalCrashHandler
                        0x08004aaf   0x1ca  Code  Gb  diagnostic.o [1]
halInternalDisableMPU   0x0800ef71     0xa  Code  Gb  mpu.o [1]
halInternalDisableWatchDog
                        0x08002fb1    0x12  Code  Gb  micro-common.o [1]
halInternalEnableMPU    0x0800ef41     0x2  Code  Gb  mpu.o [1]
halInternalEnableWatchDog
                        0x08002f9b     0xe  Code  Gb  micro-common.o [1]
halInternalFlashBlockRead
                        0x080104e9    0x28  Code  Lc  sim-eeprom-internal.o [12]
halInternalFlashErase   0x080172b1    0x72  Code  Gb  flash.o [12]
halInternalFlashWrite   0x08017323    0x6c  Code  Gb  flash.o [12]
halInternalForceWriteUartData
                        0x0800d0a1    0x30  Code  Gb  uart.o [1]
halInternalGetCStackBottom
                        0x0800d4f1     0x6  Code  Gb  micro-internal.o [12]
halInternalGetIdxTokenPtr
                        0x080079bf    0x2c  Code  Gb  token.o [1]
halInternalGetMfgTokenData
                        0x080097bd    0x5c  Code  Gb  mfg-token.o [1]
halInternalGetTokenData
                        0x0800799d    0x22  Code  Gb  token.o [1]
halInternalGetVreg      0x080072af    0x7a  Code  Gb  micro-common-internal.o [12]
halInternalIdleSleep    0x0800efc9          Code  Gb  context-switch.o [12]
halInternalIncrementCounterToken
                        0x08007a33     0xe  Code  Gb  token.o [1]
halInternalInitAdc      0x0800460b    0x4c  Code  Gb  adc.o [1]
halInternalInitButton   0x0800d275    0x68  Code  Gb  button.o [1]
halInternalInitCStackRegion
                        0x0800d437    0x1a  Code  Gb  micro-internal.o [12]
halInternalInitUartInterrupts
                        0x0800cfc9    0x1c  Code  Lc  uart.o [1]
halInternalLoadMPU      0x0800ef43    0x2e  Code  Gb  mpu.o [1]
halInternalResetWatchDog
                        0x08002fa9     0x2  Code  Gb  micro-common.o [1]
halInternalRestartUart  0x0800d1f7     0x2  Code  Gb  uart.o [1]
halInternalSetMPUGuardRegionStart
                        0x0800ef7b    0x1e  Code  Gb  mpu.o [1]
halInternalSetMfgTokenData
                        0x08009819    0x6e  Code  Gb  mfg-token.o [1]
halInternalSetRegTrim   0x08007261    0x4e  Code  Gb  micro-common-internal.o [12]
halInternalSetTokenData
                        0x080079eb    0x48  Code  Gb  token.o [1]
halInternalSimEeGetData
                        0x08010981    0x78  Code  Gb  sim-eeprom-internal.o [12]
halInternalSimEeGetPtr  0x080109f9    0x22  Code  Gb  sim-eeprom-internal.o [12]
halInternalSimEeIncrementCounter
                        0x08010e7b    0x82  Code  Gb  sim-eeprom-internal.o [12]
halInternalSimEeSetData
                        0x08010c5d   0x17c  Code  Gb  sim-eeprom-internal.o [12]
halInternalSimEeStartup
                        0x08010335    0xd2  Code  Gb  sim-eeprom.o [1]
halInternalSimEeStartupCore
                        0x0801064b   0x336  Code  Gb  sim-eeprom-internal.o [12]
halInternalSleep        0x0800678d   0x5ac  Code  Gb  sleep.o [1]
halInternalStartSystemTimer
                        0x08002fd3    0x4c  Code  Gb  micro-common.o [1]
halInternalStartUartTx  0x0800d05f    0x32  Code  Gb  uart.o [1]
halInternalStopUartTx   0x0800d091    0x10  Code  Gb  uart.o [1]
halInternalSwitchToXtal
                        0x080070a5    0x4a  Code  Lc  clocks.o [12]
halInternalSwitchToXtal24M
                        0x08006f7f    0x34  Code  Lc  clocks.o [12]
halInternalSysReset     0x0800d3ad    0x40  Code  Gb  micro-internal.o [12]
halInternalUartInit     0x0800cfe5    0x7a  Code  Gb  uart.o [1]
halInternalUartRxIsr    0x0800d0e9    0xd2  Code  Gb  uart.o [1]
halInternalUartRxPump   0x0800d1bb     0x2  Code  Gb  uart.o [1]
halInternalUartSetBaudRate
                        0x08007387    0x70  Code  Gb  micro-common-internal.o [12]
halInternalUartTxIsr    0x0800d1bd    0x3a  Code  Lc  uart.o [1]
halInternalWaitUartTxComplete
                        0x0800d0d1    0x16  Code  Gb  uart.o [1]
halInternalWakeEvent    0x20002bcc     0x4  Data  Lc  sleep.o [1]
halInternalWakeOnLedOrRho
                        0x200020e5     0x1  Data  Gb  micro.o [1]
halInternalWatchDogEnabled
                        0x08002fc3    0x10  Code  Gb  micro-common.o [1]
halIrqAIsr              0x0801ebac          Code  Wk  isr-stubs.o [1]
halIrqBIsr              0x0800d2ff    0x48  Code  Gb  button.o [1]
halIrqCIsr              0x0800d347    0x48  Code  Gb  button.o [1]
halIrqDIsr              0x08004a0b    0x2a  Code  Gb  micro.o [1]
halManagementIsr        0x0800d3ed    0x4a  Code  Gb  micro-internal.o [12]
halMcuClockKHz          0x08002f7d    0x10  Code  Gb  micro-common.o [1]
halMeasureVdd           0x0800f08b    0x42  Code  Gb  caladc.o [12]
halMemoryFaultIsr       0x0801eb0b          Code  Gb  faults.o [1]
halNmiIsr               0x0801eb05          Code  Gb  faults.o [1]
halPendSvIsr            0x0801ffd9          Code  Gb  context-switch.o [12]
halPendSvSaveContext    0x20002df8          Data  Gb  context-switch.o [12]
halPeripheralClockKHz   0x08002f8d     0xa  Code  Gb  micro-common.o [1]
halPrintCrashData       0x08004f91    0x5c  Code  Gb  diagnostic.o [1]
halPrintCrashDetails    0x08004d8b   0x1ee  Code  Gb  diagnostic.o [1]
halPrintCrashSummary    0x08004c79   0x112  Code  Gb  diagnostic.o [1]
halRadioHoldOffIsActive
                        0x080049ff     0x6  Code  Gb  micro.o [1]
halReadAdcBlocking      0x08004727    0x18  Code  Gb  adc.o [1]
halReboot               0x08004853     0x8  Code  Gb  micro.o [1]
halRequestAdcData       0x080046a5    0x82  Code  Gb  adc.o [1]
halReserved07Isr        0x0801ebac          Code  Wk  isr-stubs.o [1]
halReserved08Isr        0x0801ebac          Code  Wk  isr-stubs.o [1]
halReserved09Isr        0x0801ebac          Code  Wk  isr-stubs.o [1]
halReserved10Isr        0x0801ebac          Code  Wk  isr-stubs.o [1]
halReserved13Isr        0x0801ebac          Code  Wk  isr-stubs.o [1]
halResetInfo            0x20000000    0x98  Data  Gb  cstartup-iar-common.o [1]
halSc1Isr               0x0800d1f9    0x32  Code  Gb  uart.o [1]
halSc2Isr               0x0801ebac          Code  Wk  isr-stubs.o [1]
halSc3Isr               0x0801ebac          Code  Wk  isr-stubs.o [1]
halSc4Isr               0x0801ebac          Code  Wk  isr-stubs.o [1]
halSecurityIsr          0x0801ebac          Code  Wk  isr-stubs.o [1]
halSetLed               0x0801ba2d    0x24  Code  Gb  led.o [1]
halSimEepromCallback    0x080102ab    0x6a  Code  Gb  ember-configuration.o [1]
halSimEepromErasePage   0x08010efd    0x72  Code  Gb  sim-eeprom-internal.o [12]
halSleep                0x08006d7b    0x10  Code  Gb  sleep.o [1]
halSleepTimerIsr        0x08002eaf     0xe  Code  Gb  system-timer.o [12]
halSleepWithOptions     0x08006d39    0x42  Code  Gb  sleep.o [1]
halStackCancelSymbolDelayA
                        0x0801b11b    0x1c  Code  Gb  symbol-timer.o [20]
halStackDebugActive     0x08011043     0xc  Code  Gb  debug-jtag.o [20]
halStackDebugPutBuffer  0x08011141    0x12  Code  Gb  debug-jtag.o [20]
halStackIndicateActivity
                        0x0801ba7d     0xe  Code  Gb  led.o [1]
halStackInitTokens      0x08007901    0x9c  Code  Gb  token.o [1]
halStackMacTimerIsr     0x0801a14d    0x34  Code  Gb  mac-em250.o [20]
halStackModifyCStackSize
                        0x0800d451    0xa0  Code  Gb  micro-internal.o [12]
halStackOrderInt16uSymbolDelayA
                        0x0801b0e5    0x36  Code  Gb  symbol-timer.o [20]
halStackProcessBootCount
                        0x080049b7     0x6  Code  Gb  micro.o [1]
halStackRadioPowerDownBoard
                        0x080048f1    0x58  Code  Gb  micro.o [1]
halStackRadioPowerUpBoard
                        0x0800494f    0x58  Code  Gb  micro.o [1]
halStackReceiveVuartMessage
                        0x0800d0e7     0x2  Code  Gb  uart.o [1]
halStackSeedRandom      0x0800f989    0x18  Code  Gb  random.o [1]
halStackSymbolDelayAIsr
                        0x0800fb95    0x46  Code  Gb  mac.o [20]
halStartAdcConversion   0x08004657    0x4e  Code  Gb  adc.o [1]
halSvCallIsr            0x0801ebac          Code  Wk  isr-stubs.o [1]
halSysTickIsr           0x080070f3    0x70  Code  Gb  clocks.o [12]
halSystemClockEnableCallback
                        0x08006fc5     0x4  Code  Wk  clocks.o [12]
halSystemClockKHz       0x08002f69    0x14  Code  Gb  micro-common.o [1]
halSystemXtalKHz        0x08025ada     0x2  Data  Gb  micro-common.o [1]
halTick                 0x08007385     0x2  Code  Gb  micro-common-internal.o [12]
halTimer1Isr            0x0801e9dd    0x88  Code  Gb  buzzer.o [1]
halTimer2Isr            0x0801ebac          Code  Wk  isr-stubs.o [1]
halTriggerContextRestore
                        0x0801ffc9          Code  Gb  context-switch.o [12]
halUsageFaultIsr        0x0801eb0d          Code  Gb  faults.o [1]
halUsbIsr               0x0801ebad          Code  Wk  isr-stubs.o [1]
handleApplicationKeyRequest
                        0x08019d1b   0x10a  Code  Lc  trust-center-util.o [18]
handleNonAddressConflictRouteError
                        0x0801beaf    0x50  Code  Gb  route-error.o [20]
hardwareVersion         0x20002162     0x2  Data  Lc  ota-client.o [1]
helpCommand             0x08016bf3     0x2  Code  Gb  core-cli.o [1]
hexToInt                0x08008a7d    0x1e  Code  Lc  command-interpreter2.o [1]
identifyRequestMessageSentCallback
                        0x0801d8ed    0x1c  Code  Lc  ez-mode.o [1]
idleDelayMicroseconds   0x08006df7    0x88  Code  Gb  clocks.o [12]
ignoreExtendedPanId     0x200028ba     0x1  Data  Lc  form-and-join.o [1]
imageBlockResponseParse
                        0x08016799   0x18c  Code  Lc  ota-client.o [1]
imageNotifyParse        0x08016315    0x96  Code  Lc  ota-client.o [1]
imageNotifyPayloadLengths
                        0x08016a84     0x4  Data  Lc  ota-client.o [1]
inClCount               0x20002c3c     0x1  Data  Lc  zdo-cli.o [1]
incomingMfglibMessage   0x08012cc9    0x30  Code  Lc  mac-receive.o [20]
indexIntoBuffers        0x0800b38d    0x14  Code  Lc  packet-buffer.o [20]
initDone                0x20002985     0x1  Data  Lc  ota-storage-simple.o [1]
initNetworkParams       0x0801ecd1    0x2a  Code  Gb  network-cli.o [1]
initializeEndpoint      0x08003479    0x3a  Code  Lc  attribute-storage.o [1]
initializeNonceFromAuxFrame
                        0x0801b7c9    0x56  Code  Lc  crypto.o [20]
initializeNonceFromBuffer
                        0x0801b81f    0x44  Code  Lc  crypto.o [20]
initializeRemoteNode    0x0800ad4f    0x2e  Code  Lc  binding-table.o [4]
insertNeighbor          0x08013f59   0x10c  Code  Lc  neighbor.o [20]
intActiveBits           0x080054c4    0x44  Data  Lc  diagnostic.o [1]
internalTickFunctions   0x08005f48     0xc  Data  Lc  util.o [1]
interpanCommand         0x0801f835    0x3e  Code  Gb  zcl-cli.o [1]
interpanLongCommand     0x0801f87d    0x3e  Code  Gb  zcl-cli.o [1]
interpanResponseHeader  0x20002204    0x18  Data  Lc  util.o [1]
isCompatibleStackProfile
                        0x0800b699    0x26  Code  Gb  association.o [20]
isGroupPresent          0x0800ea37    0x2c  Code  Lc  groups-server.o [1]
isMultipleOfPageSize    0x0801c91d    0x1a  Code  Lc  ota-storage-eeprom-page-erase.o [1]
joinAttemptFailed       0x0800b829    0x62  Code  Lc  association.o [20]
joinData                0x20002224    0x18  Data  Lc  association.o [20]
joinNetworkOverTime     0x20001b64     0x2  Data  Lc  IcontrolDimmableLampApp.o [1]
joinNetworkQuietly      0x0800ba95    0x4a  Code  Lc  association.o [20]
joinedNetworkFlag       0x20001b48     0x1  Data  Lc  IcontrolDimmableLampApp.o [1]
keysClearCommand        0x0801f9eb    0x10  Code  Gb  zcl-cli.o [1]
keysDeleteCommand       0x0801f9ff     0xe  Code  Gb  zcl-cli.o [1]
keysPrintCommand        0x0801f9fb     0x4  Code  Gb  zcl-cli.o [1]
lastAgingTime           0x20002f16     0x2  Data  Lc  broadcast.o [20]
lastEventTimeMs         0x200022ac     0x2  Data  Lc  aps-retry.o [20]
lastRecordedByteMaskIndex
                        0x20002184     0x4  Data  Lc  ota-storage-eeprom-page-erase.o [1]
lastRecordedByteMaskIndexKnown
                        0x20002180     0x1  Data  Lc  ota-storage-eeprom-page-erase.o [1]
lastReportTimeMin       0x2000233b     0x1  Data  Lc  zdo-channel.o [20]
lastTransmitPacketIsDataPoll
                        0x20002320     0x1  Data  Gb  phy-common.o [20]
lastTxSfdTime           0x2000232c     0x4  Data  Gb  phy-common.o [20]
lastVcoCalChannel       0x20002fe6     0x1  Data  Lc  analogue-vco.o [20]
lastVcoValue            0x20002fe7     0x1  Data  Lc  analogue-vco.o [20]
leaveReason             0x20002254     0x1  Data  Lc  leave.o [20]
left                    0x20002fab     0x1  Data  Lc  sim-eeprom-internal.o [12]
libraryEnabled          0x20002360     0x1  Data  Lc  packet-validate.o [15]
libraryInfo             0x080112a4    0x44  Data  Lc  ember-library.o [20]
libraryNames            0x20002098    0x44  Data  Lc  library.o [1]
lnaForceReCal           0x20002268     0x2  Data  Gb  analogue.o [20]
macBufferStatus         0x200022fa     0x1  Data  Lc  mac-arbiter.o [20]
macCheckIncomingQueue   0x08012ad7   0x1c0  Code  Lc  mac-receive.o [20]
macCommandPacketIsValid
                        0x080181df    0x48  Code  Lc  packet-validate.o [15]
macCommandSizes         0x080184ec     0xc  Data  Lc  packet-validate.o [15]
macIsInactive           0x2000233a     0x1  Data  Lc  zdo-channel.o [20]
macSendShortIdCommand   0x08019789    0x36  Code  Lc  command.o [20]
magicNumberBytes        0x0801c714     0x4  Data  Lc  ota-storage-simple.o [1]
main                    0x080040c1    0xe4  Code  Gb  af-main-soc.o [1]
managePollTxRxTurnaround
                        0x0800f0ed    0x1c  Code  Gb  phy-common.o [20]
matchDescriptorsRequest
                        0x0801fd3b    0xba  Code  Gb  zdo-cli.o [1]
maybeSendAddressResponse
                        0x080186d5   0x182  Code  Lc  zigbee-device-util.o [20]
maybeSendBasicAck       0x0800a221    0x20  Code  Lc  application-support.o [20]
messageSentCallbacks    0x20002468    0x18  Data  Lc  af-main-common.o [1]
mfgSpecificId           0x20002c38     0x2  Data  Gb  zcl-cli.o [1]
minBlockRequestPeriod   0x20002164     0x2  Data  Lc  ota-client.o [1]
mobileJoinApsFrame      0x080127f8     0x8  Data  Lc  network.o [20]
modDacForceReCal        0x20002266     0x2  Data  Gb  analogue.o [20]
moveHandler             0x0801df8d    0xb2  Code  Lc  level-control.o [1]
moveToLevelHandler      0x0801deb3    0xda  Code  Lc  level-control.o [1]
mpuConfig               0x20002104    0x40  Data  Lc  mpu.o [1]
mtorFlags               0x0801d870     0x8  Data  Lc  zigbee-device.o [20]
multiNetworkCounterHandler
                        0x0800e347    0x72  Code  Lc  counters-soc.o [1]
multiNetworkCounterTable
                        0x0800e3d8    0x14  Data  Lc  counters-soc.o [1]
myEndpoint              0x20002149     0x1  Data  Lc  ota-client.o [1]
nameStrings             0x08005508    0xc0  Data  Lc  diagnostic.o [1]
networkChangeChannelCommand
                        0x0801ed79    0x1a  Code  Gb  network-cli.o [1]
networkCommandBaseSizes
                        0x080184f8     0xc  Data  Lc  packet-validate.o [15]
networkCommandPacketIsValid
                        0x08018273    0x9e  Code  Lc  packet-validate.o [15]
networkCount            0x200028bb     0x1  Data  Lc  form-and-join.o [1]
networkDecrypt          0x08011787   0x16e  Code  Lc  network.o [20]
networkEventWrapper     0x080074a5    0x1a  Code  Lc  af-event.o [1]
networkExtendedPanIdCommand
                        0x0801ed2d    0x14  Code  Gb  network-cli.o [1]
networkFindCommands     0x08024b50    0x3c  Data  Gb  cli.o [1]
networkFormCommand      0x0801ed2b     0x2  Code  Gb  network-cli.o [1]
networkIdCommand        0x0801edc1    0x12  Code  Gb  network-cli.o [1]
networkInitCommand      0x0801ed93    0x12  Code  Gb  network-cli.o [1]
networkInitData         0x20002244     0x4  Data  Lc  association.o [20]
networkJoinCommand      0x0801ecfb    0x14  Code  Gb  network-cli.o [1]
networkLeaveCommand     0x0801ed41     0x4  Code  Gb  network-cli.o [1]
networkPacketIsValid    0x08018227    0x4c  Code  Lc  packet-validate.o [15]
networkPermitJoinCommand
                        0x0801ed45    0x26  Code  Gb  network-cli.o [1]
networkRejoinCommand    0x0801ed0f    0x1c  Code  Gb  network-cli.o [1]
networkSetCommand       0x0801eda5    0x12  Code  Gb  network-cli.o [1]
networkSubmitUnicast    0x08011687    0x88  Code  Lc  network.o [20]
newChannel              0x20002fcf     0x1  Data  Lc  association.o [20]
newEraseOperation       0x20002960     0x1  Data  Lc  ota-storage-eeprom-page-erase.o [1]
newNwkUpdateId          0x20002335     0x1  Data  Lc  zdo-channel.o [20]
newPanId                0x200022f4     0x2  Data  Lc  management.o [20]
nextApsFrameCounter     0x20002f04     0x4  Data  Lc  aps-encryption.o [18]
nextChannel             0x200022b1     0x1  Data  Lc  scan.o [20]
nextEventTimer          0x2000216c     0x4  Data  Lc  ota-client.o [1]
nextIncomingRssi        0x200022d0     0x4  Data  Lc  scan.o [20]
nextIndex               0x20002fc7     0x1  Data  Lc  security-address-cache.o [1]
nextOutgoingRssi        0x200022cc     0x4  Data  Lc  scan.o [20]
nodeThatToldUsToLeave   0x20002260     0x2  Data  Lc  leave.o [20]
normalOrBoostTokSerialRegId
                        0x08016d4c     0xc  Data  Gb  analogue-cell-bias.o [20]
notePreconfiguredKeyType
                        0x08015afd    0x22  Code  Lc  aps-security.o [18]
notifyTrustCenter       0x08018f2d    0x28  Code  Lc  leave.o [20]
nullEui                 0x080098a8     0x8  Data  Lc  mfg-token.o [1]
nwkSequenceNumber       0x20002288     0x1  Data  Lc  application-support.o [20]
oneScanDone             0x2000233c     0x1  Data  Lc  zdo-channel.o [20]
optionAddressTableCommands
                        0x08024a38    0x3c  Data  Gb  cli.o [1]
optionAddressTablePrintCommand
                        0x0801ee1f    0x2a  Code  Gb  option-cli.o [1]
optionAddressTableSetCommand
                        0x0801ee49    0x24  Code  Gb  option-cli.o [1]
optionAddressTableSetCommandArguments
                        0x20001e5c    0x10  Data  Gb  cli.o [1]
optionApsRetryCommand   0x0801ee83    0x24  Code  Gb  option-cli.o [1]
optionApsSecurityCommand
                        0x0801eea7    0x16  Code  Gb  option-cli.o [1]
optionApsretryCommands  0x080249e8    0x50  Data  Gb  cli.o [1]
optionBindingTableClearCommand
                        0x0801ee1b     0x4  Code  Gb  option-cli.o [1]
optionBindingTableCommands
                        0x08024998    0x50  Data  Gb  cli.o [1]
optionBindingTablePrintCommand
                        0x0801ee19     0x2  Code  Gb  option-cli.o [1]
optionBindingTableSetCommand
                        0x0801efd5    0x50  Code  Gb  option-cli.o [1]
optionBindingTableSetCommandArguments
                        0x20001e44    0x18  Data  Gb  cli.o [1]
optionDiscoverCommand   0x0801edf5    0x24  Code  Gb  option-cli.o [1]
optionEndDeviceBindCommand
                        0x0801ee6d    0x10  Code  Gb  option-cli.o [1]
optionInstallCodeCommand
                        0x0801ef39    0x9c  Code  Gb  option-cli.o [1]
optionLinkCommand       0x0801eebd    0x2e  Code  Gb  option-cli.o [1]
optionPrintRxCommand    0x0801eddb    0x16  Code  Gb  option-cli.o [1]
optionPrintRxMsgsCommands
                        0x0802495c    0x3c  Data  Gb  cli.o [1]
optionRegisterCommand   0x0801edf1     0x4  Code  Gb  option-cli.o [1]
optionSecurityCommands  0x08024934    0x28  Data  Gb  cli.o [1]
originalChannel         0x200022b4     0x1  Data  Lc  scan.o [20]
originalPanId           0x200022c0     0x2  Data  Lc  scan.o [20]
originalRadioIdleMode   0x200022b5     0x1  Data  Lc  scan.o [20]
otaCliBootload          0x0801f065    0x24  Code  Gb  ota-client-cli.o [1]
otaCliVerify            0x0801f089     0x2  Code  Gb  ota-client-cli.o [1]
otaClientTick           0x08015f25    0x7e  Code  Lc  ota-client.o [1]
otaPrintClientInfo      0x0801f08b    0x10  Code  Gb  ota-client-cli.o [1]
otaStartClientCommand   0x0801f05d     0x4  Code  Gb  ota-client-cli.o [1]
otaStartStopClientCommand
                        0x0801f051     0xc  Code  Gb  ota-client-cli.o [1]
otaStopClientCommand    0x0801f061     0x4  Code  Gb  ota-client-cli.o [1]
outClCount              0x20002c3d     0x1  Data  Lc  zdo-cli.o [1]
paPresent               0x2000226e     0x1  Data  Lc  analogue.o [20]
packetChecks            0x0801852c    0x40  Data  Lc  packet-validate.o [15]
pageEraseStatus         0x2000200d     0x1  Data  Gb  eeprom.o [1]
panConflictMeter        0x200022e8     0x1  Data  Lc  management.o [20]
pendingAckedCount       0x200022a1     0x1  Data  Lc  aps-retry.o [20]
permitJoining           0x20002c58     0x1  Data  Lc  association.o [20]
phyToMacQueueLength     0x20002350     0x2  Data  Lc  mac-receive.o [20]
phyToMacQueueLengthReached
                        0x20002354     0x2  Data  Lc  mac-receive.o [20]
platformTick            0x0800589d    0x20  Code  Lc  util.o [1]
pluginAddressTableAddCommandArguments
                        0x20001e2c     0x8  Data  Gb  cli.o [1]
pluginAddressTableCommands
                        0x08024790    0x50  Data  Gb  cli.o [1]
pluginAddressTableLookupCommandArguments
                        0x20001e34     0x8  Data  Gb  cli.o [1]
pluginAddressTableRemoveCommandArguments
                        0x20001e3c     0x8  Data  Gb  cli.o [1]
pluginCountersCommands  0x080246f0    0xa0  Data  Gb  cli.o [1]
pluginCountersSetThresholdCommandArguments
                        0x20001e20     0xc  Data  Gb  cli.o [1]
pluginEepromCommands    0x080246a0    0x50  Data  Gb  cli.o [1]
pluginEepromDataPrintCommandArguments
                        0x20001e18     0x8  Data  Gb  cli.o [1]
pluginEndDeviceSupportCommands
                        0x08024650    0x50  Data  Gb  cli.o [1]
pluginEndDeviceSupportForceShortPollCommandArguments
                        0x20001e08     0x8  Data  Gb  cli.o [1]
pluginEndDeviceSupportPollCompletedCallbackCommandArguments
                        0x20001e10     0x8  Data  Gb  cli.o [1]
pluginGroupsServerCommands
                        0x08024628    0x28  Data  Gb  cli.o [1]
pluginIdentifyCommands  0x08024600    0x28  Data  Gb  cli.o [1]
pluginIdleSleepAwakeWhenNotJoinedCommandArguments
                        0x20001df8     0x8  Data  Gb  cli.o [1]
pluginIdleSleepCommands
                        0x080245b0    0x50  Data  Gb  cli.o [1]
pluginIdleSleepForceAwakeCommandArguments
                        0x20001e00     0x8  Data  Gb  cli.o [1]
pluginOtaBootloadCommands
                        0x08024588    0x28  Data  Gb  cli.o [1]
pluginOtaClientBootloadCommandArguments
                        0x20001dd8     0x8  Data  Gb  cli.o [1]
pluginOtaClientCommands
                        0x080244c0    0xc8  Data  Gb  cli.o [1]
pluginOtaClientPageRequestCommandArguments
                        0x20001de0     0x8  Data  Gb  cli.o [1]
pluginOtaClientPauseAtCommandArguments
                        0x20001de8     0x8  Data  Gb  cli.o [1]
pluginOtaClientVerifyCommandArguments
                        0x20001df0     0x8  Data  Gb  cli.o [1]
pluginOtaStorageCommonCommands
                        0x08024448    0x78  Data  Gb  cli.o [1]
pluginOtaStorageCommonDataPrintCommandArguments
                        0x20001dc4     0xc  Data  Gb  cli.o [1]
pluginOtaStorageCommonDeleteCommandArguments
                        0x20001dd0     0x8  Data  Gb  cli.o [1]
pluginReportingAddCommandArguments
                        0x20001d9c    0x20  Data  Gb  cli.o [1]
pluginReportingCommands
                        0x080243e4    0x64  Data  Gb  cli.o [1]
pluginReportingRemoveCommandArguments
                        0x20001dbc     0x8  Data  Gb  cli.o [1]
pluginScenesCommands    0x080243bc    0x28  Data  Gb  cli.o [1]
pluginSimpleMeteringServerCommands
                        0x080243a8    0x14  Data  Gb  cli.o [1]
pollState               0x200022fc     0x1  Data  Lc  mac-arbiter.o [20]
power                   0x20001b38     0x4  Data  Lc  IcontrolDimmableLampApp.o [1]
powerConsumption        0x20001b30     0x8  Data  Gb  IcontrolDimmableLampApp.o [1]
powerLevelSettings      0x080097b8     0x4  Data  Gb  analogue.o [20]
powers10                0x08007eac    0x24  Data  Lc  serial.o [1]
prepareForResponse      0x08005929    0x5e  Code  Lc  util.o [1]
previousCharacter       0x20002fb2     0x1  Data  Lc  command-interpreter2.o [1]
previousLoValue         0x200022d8     0x1  Data  Gb  clocks.o [12]
previousTemperature     0x20002fda     0x1  Data  Lc  phy.o [20]
previousTemperatureAvailable
                        0x20002fdb     0x1  Data  Lc  phy.o [20]
printAllLibraryStatus   0x0801ebb1    0x88  Code  Gb  library.o [1]
printBootloaderInfoCommand
                        0x0801f025    0x2c  Code  Gb  ota-bootload-cli.o [1]
printCommandUsage       0x08008f71    0xcc  Code  Lc  command-interpreter2.o [1]
printDiscoverCommandsResponse
                        0x0800eae5    0x12  Code  Lc  process-global-message.o [1]
printEnable             0x08003f9d    0x16  Code  Lc  print.o [1]
printKeyInfo            0x0801f1fd    0x36  Code  Gb  security-cli.o [1]
printKeyTable           0x0801f233    0x5a  Code  Gb  security-cli.o [1]
printOffCommand         0x08016be3    0x10  Code  Gb  core-cli.o [1]
printOnCommand          0x08016bd3    0x10  Code  Gb  core-cli.o [1]
printPercentage         0x0801c7f3    0x3a  Code  Lc  ota-common.o [1]
printTextLine           0x0801e90f     0xc  Code  Gb  print-formatter.o [1]
printTimeCommand        0x0801f8e9     0xe  Code  Gb  zcl-cli.o [1]
printZigbeeKey          0x0801e907     0x8  Code  Gb  print-formatter.o [1]
processDeviceAnnounceAndFindIdConflict
                        0x08011f6d    0xbe  Code  Lc  network.o [20]
processKeyCommand       0x080157cd   0x2a2  Code  Lc  aps-security.o [18]
processRxAddressReceiveCompleteIsr
                        0x0800d5f9   0x150  Code  Lc  phy.o [20]
processRxPacketCompleteIsr
                        0x0800d749    0xe2  Code  Lc  phy.o [20]
processScanRequest      0x080130b1   0x118  Code  Lc  zdo-channel.o [20]
processZigbeePacket     0x08011a75   0x3ca  Code  Lc  network.o [20]
ptiEnabled              0x20002317     0x1  Data  Lc  phy-common.o [20]
ptrCache                0x20002b08    0xbc  Data  Gb  sim-eeprom.o [1]
ptrCacheLoc             0x080105eb    0x22  Code  Lc  sim-eeprom-internal.o [12]
pushInt16u              0x08017805     0xc  Code  Lc  zigbee-packet-header.o [20]
putImageInfoInMessage   0x080161e5    0x1c  Code  Lc  ota-client.o [1]
queryNextImage          0x080165c1    0x64  Code  Lc  ota-client.o [1]
queryNextImageResponseParse
                        0x080163b7    0xea  Code  Lc  ota-client.o [1]
radioCheckCrc           0x20002330     0x1  Data  Gb  phy-common.o [20]
radioCurrentPowerStatus
                        0x20002321     0x1  Data  Gb  phy-common.o [20]
radioIdlePowerState     0x2000231c     0x1  Data  Lc  phy-common.o [20]
radioTransmitConfig     0x2000228c     0x8  Data  Gb  zigbee-stack.o [20]
reCalibrateVref         0x2000226f     0x1  Data  Gb  analogue.o [20]
readAndValidateStoredImage
                        0x0801c4c5   0x142  Code  Lc  ota-storage-simple.o [1]
readCounterValue        0x08010e47    0x34  Code  Lc  sim-eeprom-internal.o [12]
readIdentifyTime        0x0801db9f    0x18  Code  Lc  identify.o [1]
readNetworkTokens       0x0800c9db    0x2e  Code  Lc  association.o [20]
readNodeData            0x0800ca09     0xc  Code  Lc  association.o [20]
readServerAttribute     0x0801a375    0x2e  Code  Lc  scenes.o [1]
readTokenData           0x08010569    0x42  Code  Lc  sim-eeprom-internal.o [12]
readWritePrimitive      0x0801cbd7    0x70  Code  Lc  ota-storage-eeprom.o [1]
recordServerEuiAndGoToNextState
                        0x08016075    0xa2  Code  Lc  ota-client.o [1]
recordUpgradeStatus     0x08016201    0x26  Code  Lc  ota-client.o [1]
recyclePendingAckedMessages
                        0x08013235    0x48  Code  Lc  aps-retry.o [20]
reenqueueSubmitHead     0x08013d7d    0x80  Code  Lc  retry.o [20]
rejoinUpdateDeviceStatusValues
                        0x0800bf34     0x8  Data  Lc  association.o [20]
releaseTypes            0x080089fc    0x48  Data  Lc  af-main-common.o [1]
removeConfiguration     0x08006561    0x24  Code  Lc  reporting.o [1]
removeConfigurationAndScheduleTick
                        0x08006585     0xc  Code  Lc  reporting.o [1]
removeFromBuffer        0x0801145f    0x2e  Code  Lc  network.o [20]
requestKeyBuffer        0x200022e6     0x1  Data  Lc  trust-center-util.o [18]
resetCommand            0x08016bf5     0x4  Code  Gb  core-cli.o [1]
restartServerDiscoveryAfterDelay
                        0x08015fc5    0x12  Code  Lc  ota-client.o [1]
retryEntries            0x20002e28    0x40  Data  Lc  retry.o [20]
retrySendReport         0x08005f55    0x10  Code  Lc  reporting.o [1]
reverse                 0x0801eef3    0x20  Code  Lc  option-cli.o [1]
rf4ceNetworkCommandPacketIsValid
                        0x08018443    0x60  Code  Lc  packet-validate.o [15]
rf4ceNetworkPacketIsValid
                        0x080183f1    0x52  Code  Lc  packet-validate.o [15]
rf4ceNwkApplicationCapabilitiesOffset
                        0x08018528     0x4  Data  Lc  packet-validate.o [15]
rf4ceNwkCommandBaseSizes
                        0x0801851c     0xc  Data  Lc  packet-validate.o [15]
rhoActive               0x200020e4     0x1  Data  Lc  micro.o [1]
rhoEnabled              0x200020e6     0x1  Data  Lc  micro.o [1]
rmwRadioPowerCfgReg     0x0800487d    0x3e  Code  Lc  micro.o [1]
rmwRadioPowerOutReg     0x080048bb    0x36  Code  Lc  micro.o [1]
routeRequestId          0x20002fe0     0x1  Data  Lc  leaf-routing-stub.o [20]
runEventHandler         0x08013439   0x122  Code  Lc  aps-retry.o [20]
runUpgrade              0x080169f3    0x12  Code  Lc  ota-client.o [1]
rxBuffer                0x20002cd4   0x114  Data  Lc  phy.o [20]
sampleVcoTune           0x08016f3d    0x44  Code  Gb  analogue-mod-dac.o [20]
saveEndpoint            0x20001b9d     0x1  Data  Gb  af-main-common.o [1]
savedMSP                0x20002dfc          Data  Gb  context-switch.o [12]
savedResetCause         0x20002436     0x2  Data  Lc  cstartup-iar-common.o [1]
scanChannelMask         0x200022c8     0x4  Data  Lc  scan.o [20]
scanDuration            0x200022b2     0x1  Data  Lc  scan.o [20]
scanFrameCounter        0x200022c4     0x4  Data  Lc  scan.o [20]
scanRequestHeader       0x20002337     0x1  Data  Lc  zdo-channel.o [20]
scanResults             0x20002338     0x1  Data  Lc  zdo-channel.o [20]
scanTransmitRetries     0x200022b3     0x1  Data  Lc  scan.o [20]
scansRemaining          0x20002339     0x1  Data  Lc  zdo-channel.o [20]
schedule                0x0801dd01    0x12  Code  Lc  level-control.o [1]
scheduleHalSysTickIsrMicroseconds
                        0x08006e7f    0x4e  Code  Lc  clocks.o [12]
scheduleIdentifyTick    0x0801dbcf    0x66  Code  Lc  identify.o [1]
scheduleTick            0x080064e1    0x7a  Code  Lc  reporting.o [1]
securityAddressCacheInit
                        0x08008a45     0xc  Code  Gb  security-address-cache.o [1]
securityApsCommands     0x080248f8    0x3c  Data  Gb  cli.o [1]
securityMfgTokenCommands
                        0x08024308    0x3c  Data  Gb  cli.o [1]
securityMfgTokenSetCommandArguments
                        0x20001d90     0xc  Data  Gb  cli.o [1]
seed0                   0x200021ae     0x2  Data  Gb  random.o [1]
seed1                   0x200021b0     0x2  Data  Gb  random.o [1]
send                    0x080083dd   0x118  Code  Lc  af-main-common.o [1]
sendAckedUnicast        0x0801355b    0xe8  Code  Lc  aps-retry.o [20]
sendApplicationKeys     0x08019e25    0xe6  Code  Lc  trust-center-util.o [18]
sendFromSource          0x2000228a     0x2  Data  Lc  application-support.o [20]
sendLeaveCommand        0x08018f91    0x74  Code  Lc  leave.o [20]
sendMessage             0x080164b3   0x10e  Code  Lc  ota-client.o [1]
sendSpecialJoinRequest  0x0800bc43    0xd2  Code  Lc  association.o [20]
sendUpdateDevice        0x080154c1    0x4c  Code  Lc  aps-security.o [18]
sendZigDevRequestBuffer
                        0x0800aad9    0x46  Code  Lc  zigbee-device-library.o [1]
sequenceNumber          0x20002fe8     0x1  Data  Lc  debug-jtag.o [20]
serialPort              0x20001b9e     0x1  Data  Gb  af-main-soc.o [1]
serialRegData           0x20002c6c    0x24  Data  Gb  analogue.o [20]
serverEndpoint          0x2000214a     0x1  Data  Lc  ota-client.o [1]
serverNodeId            0x20002160     0x2  Data  Lc  ota-client.o [1]
serviceDiscoveryCallback
                        0x0801da89    0x72  Code  Lc  ez-mode.o [1]
serviceDiscoveryComplete
                        0x08014cbb    0x50  Code  Lc  service-discovery-common.o [1]
setNonvolatileBinding   0x0800ab57    0x2e  Code  Lc  binding-table.o [4]
setOnOffValue           0x0801de29    0x22  Code  Lc  level-control.o [1]
setOrOverrideTrustCenterEui64
                        0x080146bb    0x22  Code  Lc  aps-keys.o [18]
setPageRequest          0x0801f09b    0x12  Code  Gb  ota-client-cli.o [1]
setPausePercentage      0x0801f0ad     0xe  Code  Gb  ota-client-cli.o [1]
setRadioParameters      0x0800c891    0x52  Code  Lc  association.o [20]
setTimer                0x08015eb1    0x50  Code  Lc  ota-client.o [1]
setTxStepTime           0x0800924b    0x34  Code  Lc  analogue.o [20]
setup                   0x0800cf5b    0x3a  Code  Lc  form-and-join.o [1]
setupDiscoveryData      0x08014c93    0x28  Code  Lc  service-discovery-common.o [1]
shift                   0x0800f9a1    0x10  Code  Lc  random.o [1]
simEeErasePage          0x080105b3    0x16  Code  Lc  sim-eeprom-internal.o [12]
simEeSetDataActiveSemaphore
                        0x20002fc9     0x1  Data  Gb  token.o [1]
simulatedEepromStorage  0x0802e000  0x2000  Data  Gb  sim-eeprom.o [1]
singletonAttributeData  0x200024dc    0x4c  Data  Gb  attribute-storage.o [1]
sizeCache               0x08025724    0x20  Data  Gb  sim-eeprom.o [1]
sleepTimerInterruptOccurred
                        0x20002c64     0x1  Data  Gb  system-timer.o [12]
sleepTmrArtificalCnt    0x20002c68     0x4  Data  Gb  system-timer.o [12]
sleepyBroadcastInfo     0x20002365     0x1  Data  Lc  jit.o [20]
spreadModDac1           0x2000234c     0x2  Data  Gb  analogue-mod-dac.o [20]
spreadModDac2           0x2000234e     0x2  Data  Gb  analogue-mod-dac.o [20]
stackEvents             0x08008300    0xc0  Data  Gb  zigbee-stack.o [20]
stackTokenInfo          0x08015ce8    0x38  Data  Lc  token-cache.o [20]
startChannelScan        0x08019669    0x62  Code  Lc  scan.o [20]
startNetworkOperation   0x0800b7ed    0x3c  Code  Lc  association.o [20]
startNextConversion     0x080045b5    0x56  Code  Gb  adc.o [1]
startPanIdScan          0x0800cd37    0x32  Code  Lc  form-and-join.o [1]
startScan               0x0800cfb5    0x12  Code  Lc  form-and-join.o [1]
startServerDiscovery    0x08016191    0x4a  Code  Lc  ota-client.o [1]
state                   0x2000294c     0x1  Data  Lc  network-find.o [1]
stateTable              0x200028cc     0x4  Data  Lc  identify.o [1]
stateTable              0x200028d0    0x14  Data  Lc  level-control.o [1]
states                  0x20002888     0x4  Data  Lc  end-device-move.o [1]
states                  0x2000288c    0x14  Data  Lc  end-device-support.o [1]
states                  0x20002afc     0xc  Data  Lc  service-discovery-common.o [1]
statsTable              0x20002cbc     0xc  Data  Lc  debug.o [20]
status                  0x0801ac29    0x10  Code  Lc  call-command-handler.o [1]
stepHandler             0x0801e04f    0xfa  Code  Lc  level-control.o [1]
stopHandler             0x0801e149    0x26  Code  Lc  level-control.o [1]
storageHasFullImage     0x20002984     0x1  Data  Lc  ota-storage-simple.o [1]
storedSleepControl      0x20002961     0x1  Data  Lc  ota-storage-eeprom-page-erase.o [1]
stringToUnsignedInt     0x08008e57    0x78  Code  Lc  command-interpreter2.o [1]
submitCount             0x20002e19     0x1  Data  Lc  retry.o [20]
swoOutput               0x08011067    0xda  Code  Lc  debug-jtag.o [20]
terminateScanRequest    0x0801307b    0x26  Code  Lc  zdo-channel.o [20]
testResponseCommands    0x08024060    0x3c  Data  Gb  cli.o [1]
tokenArraySize          0x080257c4    0x20  Data  Gb  token-def.o [1]
tokenCreators           0x08025744    0x40  Data  Gb  token-def.o [1]
tokenDefaults           0x08025a20    0x80  Data  Gb  token-def.o [1]
tokenIsCnt              0x08025784    0x20  Data  Gb  token-def.o [1]
tokenLength             0x08008a9b    0x10  Code  Lc  command-interpreter2.o [1]
tokenPointer            0x08008aab    0x10  Code  Lc  command-interpreter2.o [1]
tokenSize               0x080257a4    0x20  Data  Gb  token-def.o [1]
tokensActive            0x20002fc8     0x1  Data  Gb  token.o [1]
totalImageSize          0x20002168     0x4  Data  Lc  ota-client.o [1]
transmitQueue           0x20002300     0x8  Data  Lc  mac-arbiter.o [20]
transportKeyFrameSizes  0x08018514     0x8  Data  Lc  packet-validate.o [15]
tuneDone                0x20001ba1     0x1  Data  Gb  buzzer.o [1]
tunePos                 0x20001ba0     0x1  Data  Gb  buzzer.o [1]
txPower                 0x0800976c    0x28  Data  Gb  analogue.o [20]
txStepTimeSnapshot      0x20002328     0x2  Data  Lc  phy-common.o [20]
unSetKey                0x08014ee8    0x10  Data  Lc  af-security-common.o [1]
unbindRequest           0x0801fc77    0x6c  Code  Lc  zdo-cli.o [1]
underVoltageState       0x20001b11     0x1  Data  Gb  IcontrolDimmableLampApp.o [1]
unicastHead             0x20002f84     0x1  Data  Lc  unicast-table.o [20]
uninitializedIsr        0x0801eb11          Code  Gb  faults.o [1]
unsentMessageCount      0x200022fb     0x1  Data  Lc  mac-arbiter.o [20]
unsolicitedChannelReport
                        0x20002336     0x1  Data  Lc  zdo-channel.o [20]
updateCurrentImageAttributes
                        0x08015df9    0x3c  Code  Lc  ota-client.o [1]
updateCurrentOffset     0x08016003    0x1e  Code  Lc  ota-client.o [1]
updateDownloadFileVersion
                        0x08016021    0x20  Code  Lc  ota-client.o [1]
updateMinBlockRequestPeriodAttribute
                        0x08015e3d    0x20  Code  Lc  ota-client.o [1]
updateParentToken       0x0800cb85    0x62  Code  Lc  association.o [20]
upgradeEndResponseParse
                        0x08016925    0xa6  Code  Lc  ota-client.o [1]
useOsc32k               0x20002fc1     0x1  Data  Gb  micro-common.o [1]
usePageRequest          0x2000214d     0x1  Data  Lc  ota-client.o [1]
useXtalAsIs             0x200022d7     0x1  Data  Lc  clocks.o [12]
vFillBuffer             0x0800e011   0x128  Code  Lc  client-api.o [1]
vcoLastTuneValueAvailable
                        0x20002fe5     0x1  Data  Gb  analogue-vco.o [20]
vcoTuneModDacError      0x08016f81    0x24  Code  Lc  analogue-mod-dac.o [20]
verifyAppBlVersion      0x0801e4d1    0x1c  Code  Lc  bootloader-interface-app.o [1]
verifyFib               0x0801728d    0x24  Code  Lc  flash.o [12]
volatileData            0x2000299c    0x48  Data  Lc  reporting.o [1]
voltsToCelsius          0x08002547    0xc6  Code  Lc  IcontrolDimmableLampApp.o [1]
waitingForResponse      0x2000214c     0x1  Data  Lc  ota-client.o [1]
wakeupSleepTmrCnt       0x20002bd0     0x4  Data  Gb  sleep.o [1]
wakeupXtalState         0x200022d6     0x1  Data  Gb  clocks.o [12]
walkDelayQueue          0x08013b81    0xc8  Code  Lc  retry.o [20]
writeIdentifyTime       0x0801dbb7    0x18  Code  Lc  identify.o [1]
writeMessage            0x0800b491    0xb0  Code  Lc  packet-buffer.o [20]
writePageCounters       0x08010bdf    0x7e  Code  Lc  sim-eeprom-internal.o [12]
writeServerAttribute    0x0801a3a3    0x10  Code  Lc  scenes.o [1]
writeTokenBlockData     0x08010511    0x58  Code  Lc  sim-eeprom-internal.o [12]
xorBufferBytesIntoBlock
                        0x0801b517    0x82  Code  Lc  crypto.o [20]
xtalAboveLoThresholdUs  0x200022da     0x2  Data  Gb  clocks.o [12]
xtalUnstable            0x200022d5     0x1  Data  Gb  clocks.o [12]
zaNodeSecurityInit      0x08016ae9    0x7c  Code  Gb  af-node.o [1]
zaTrustCenterSecurityPolicyInit
                        0x08016a91    0x2a  Code  Gb  af-trust-center.o [1]
zclBufferAddByte        0x0801f3cb    0x12  Code  Gb  zcl-cli.o [1]
zclBufferAddByteFromArgument
                        0x0801f403     0x8  Code  Gb  zcl-cli.o [1]
zclBufferAddInt32       0x0801f3ef    0x14  Code  Gb  zcl-cli.o [1]
zclBufferAddInt32FromArgument
                        0x0801f427     0xc  Code  Gb  zcl-cli.o [1]
zclBufferAddInt8sFromArgument
                        0x0801f40b     0x6  Code  Gb  zcl-cli.o [1]
zclBufferAddLengthAndStringFromArgument
                        0x0801f433    0x26  Code  Gb  zcl-cli.o [1]
zclBufferAddWord        0x0801f3dd    0x12  Code  Gb  zcl-cli.o [1]
zclBufferAddWordFromArgument
                        0x0801f419     0xe  Code  Gb  zcl-cli.o [1]
zclBufferSetup          0x0801f383    0x48  Code  Gb  zcl-cli.o [1]
zclCmdIsBuilt           0x20002c34     0x1  Data  Gb  zcl-cli.o [1]
zclGlobalCommandDiscoveryCommand
                        0x0801f6b7    0x2c  Code  Gb  zcl-cli.o [1]
zclGlobalCommands       0x08024178   0x104  Data  Gb  cli.o [1]
zclGlobalDirection      0x20002c35     0x1  Data  Lc  zcl-cli.o [1]
zclGlobalDirectionCommand
                        0x0801f4fb    0x14  Code  Gb  zcl-cli.o [1]
zclGlobalDirectionCommandArguments
                        0x20001cb0     0x8  Data  Gb  cli.o [1]
zclGlobalDiscComGenCommandArguments
                        0x20001cb8    0x10  Data  Gb  cli.o [1]
zclGlobalDiscComRecCommandArguments
                        0x20001cc8    0x10  Data  Gb  cli.o [1]
zclGlobalDiscoverCommand
                        0x0801f571     0x4  Code  Gb  zcl-cli.o [1]
zclGlobalDiscoverCommandArguments
                        0x20001cd8    0x10  Data  Gb  cli.o [1]
zclGlobalExpectReportFromMeCommand
                        0x0801f693    0x24  Code  Gb  zcl-cli.o [1]
zclGlobalExpectReportFromMeCommandArguments
                        0x20001ce8    0x10  Data  Gb  cli.o [1]
zclGlobalNwriteCommandArguments
                        0x20001cf8    0x14  Data  Gb  cli.o [1]
zclGlobalReadCommand    0x0801f50f     0x6  Code  Gb  zcl-cli.o [1]
zclGlobalReadCommandArguments
                        0x20001d0c     0xc  Data  Gb  cli.o [1]
zclGlobalReportCommand  0x0801f57f    0x94  Code  Gb  zcl-cli.o [1]
zclGlobalReportCommandArguments
                        0x20001d18    0x14  Data  Gb  cli.o [1]
zclGlobalReportReadCommand
                        0x0801f613    0x1e  Code  Gb  zcl-cli.o [1]
zclGlobalReportReadCommandArguments
                        0x20001d2c    0x10  Data  Gb  cli.o [1]
zclGlobalSendMeAReportCommand
                        0x0801f631    0x58  Code  Gb  zcl-cli.o [1]
zclGlobalSendMeAReportCommandArguments
                        0x20001d3c    0x1c  Data  Gb  cli.o [1]
zclGlobalSetup          0x0801f4e1    0x1a  Code  Gb  zcl-cli.o [1]
zclGlobalUwriteCommandArguments
                        0x20001d58    0x14  Data  Gb  cli.o [1]
zclGlobalWriteCommand   0x0801f515    0x56  Code  Gb  zcl-cli.o [1]
zclGlobalWriteCommandArguments
                        0x20001d6c    0x14  Data  Gb  cli.o [1]
zclIdentifyCommands     0x08024100    0x78  Data  Gb  cli.o [1]
zclIdentifyIdCommand    0x08020065     0x4  Code  Lc  cli.o [1]
zclIdentifyIdCommandArguments
                        0x20001c88     0x8  Data  Gb  cli.o [1]
zclIdentifyOffCommand   0x0801f731     0x8  Code  Gb  zcl-cli.o [1]
zclIdentifyOffCommandArguments
                        0x20001c90     0x8  Data  Gb  cli.o [1]
zclIdentifyOnCommand    0x0801f717    0x1a  Code  Gb  zcl-cli.o [1]
zclIdentifyOnCommandArguments
                        0x20001c98     0xc  Data  Gb  cli.o [1]
zclIdentifyQueryCommand
                        0x08020069     0x2  Code  Lc  cli.o [1]
zclIdentifyTriggerCommand
                        0x08020073     0x4  Code  Lc  cli.o [1]
zclIdentifyTriggerCommandArguments
                        0x20001ca4     0xc  Data  Gb  cli.o [1]
zclMfgCodeCommand       0x0801f6f9    0x10  Code  Gb  zcl-cli.o [1]
zclSimpleCommand        0x0801f459    0x88  Code  Gb  zcl-cli.o [1]
zclSmCommands           0x080240c4    0x3c  Data  Gb  cli.o [1]
zclSmDmCommand          0x08020077     0x4  Code  Lc  cli.o [1]
zclSmRmCommand          0x0802007b     0x2  Code  Lc  cli.o [1]
zclTestCommands         0x0802409c    0x28  Data  Gb  cli.o [1]
zclTestResponseOffCommand
                        0x0801f6f3     0x6  Code  Gb  zcl-cli.o [1]
zclTestResponseOnCommand
                        0x0801f6ed     0x6  Code  Gb  zcl-cli.o [1]
zclTimeCommand          0x0801f709     0xe  Code  Gb  zcl-cli.o [1]
zdoActiveEpCommand      0x0801fc1b     0xe  Code  Gb  zdo-cli.o [1]
zdoAddClusterCommand    0x0801fb45    0x2c  Code  Gb  zdo-cli.o [1]
zdoBindCommand          0x0801fae5    0x60  Code  Gb  zdo-cli.o [1]
zdoClearClusterCommand  0x0801fb71    0x16  Code  Gb  zdo-cli.o [1]
zdoIeeeAddressRequestCommand
                        0x0801fa5b    0x12  Code  Gb  zdo-cli.o [1]
zdoInClListAddCommandArguments
                        0x20001c08     0x8  Data  Gb  cli.o [1]
zdoInClListCommands     0x08023ef8    0x3c  Data  Gb  cli.o [1]
zdoInClusters           0x20002c40     0xc  Data  Lc  zdo-cli.o [1]
zdoLeaveRequestCommand  0x0801fc2f    0x30  Code  Gb  zdo-cli.o [1]
zdoMatchCommand         0x0801fa99    0x2c  Code  Gb  zdo-cli.o [1]
zdoNetworkUpdateChannelCommand
                        0x0801fb93    0x20  Code  Gb  zdo-cli.o [1]
zdoNetworkUpdateScanCommand
                        0x0801fbb3    0x30  Code  Gb  zdo-cli.o [1]
zdoNetworkUpdateSetCommand
                        0x0801fbf1    0x14  Code  Gb  zdo-cli.o [1]
zdoNodeCommand          0x0801fa87    0x12  Code  Gb  zdo-cli.o [1]
zdoNwkAddressRequestCommand
                        0x0801fa45    0x16  Code  Gb  zdo-cli.o [1]
zdoNwkUpdChanCommandArguments
                        0x20001be4     0x8  Data  Gb  cli.o [1]
zdoNwkUpdCommands       0x08023ea8    0x50  Data  Gb  cli.o [1]
zdoNwkUpdScanCommandArguments
                        0x20001bec    0x10  Data  Gb  cli.o [1]
zdoNwkUpdSetCommandArguments
                        0x20001bfc     0xc  Data  Gb  cli.o [1]
zdoOutClListAddCommandArguments
                        0x20001bdc     0x8  Data  Gb  cli.o [1]
zdoOutClListCommands    0x08023e6c    0x3c  Data  Gb  cli.o [1]
zdoOutClusters          0x20002c4c     0xc  Data  Lc  zdo-cli.o [1]
zdoPowerDescriptorRequestCommand
                        0x0801fc67    0x10  Code  Gb  zdo-cli.o [1]
zdoRouteRequestCommand  0x0801fd21    0x1a  Code  Gb  zdo-cli.o [1]
zdoSimpleCommand        0x0801fa6d    0x1a  Code  Gb  zdo-cli.o [1]
zdoUnbindCommands       0x08023e30    0x3c  Data  Gb  cli.o [1]
zdoUnbindGroupCommand   0x0801fce3    0x18  Code  Gb  zdo-cli.o [1]
zdoUnbindGroupCommandArguments
                        0x20001ba8    0x18  Data  Gb  cli.o [1]
zdoUnbindUnicastCommand
                        0x0801fcfb    0x26  Code  Gb  zdo-cli.o [1]
zdoUnbindUnicastCommandArguments
                        0x20001bc0    0x1c  Data  Gb  cli.o [1]
zeroLenByte             0x20002c3a     0x2  Data  Lc  message.o [1]
zigDevApsStruct         0x20002dec     0x4  Data  Lc  zigbee-device-util.o [20]
zigDevRequestRadius     0x20002221     0x1  Data  Gb  zigbee-device-common.o [1]
zigDevRequestSequence   0x20002fcc     0x1  Data  Lc  zigbee-device-common.o [1]
zigDevRequestSequence   0x20002de8     0x1  Data  Lc  zigbee-device-util.o [20]


[1] = D:\Tools\Sengled\Ember\EmberZNet5.3.0-GA\em35x\build\IControlDimmableLamp
[2] = command line
[3] = alarm-stub-library.a
[4] = binding-table-library.a
[5] = cbke-163k1-stub-library.a
[6] = cbke-283k1-stub-library.a
[7] = cbke-library-dsa-sign-stub.a
[8] = cbke-library-dsa-verify-stub.a
[9] = cbke-stub-library.a
[10] = dl7M_tln.a
[11] = end-device-bind-stub-library.a
[12] = hal-library.a
[13] = install-code-library-stub.a
[14] = multi-network-stub-library.a
[15] = packet-validate-library.a
[16] = rf4ce-stack-stub-library.a
[17] = rt7M_tl.a
[18] = security-library-core.a
[19] = security-library-link-keys.a
[20] = zigbee-pro-leaf-stack.a
[21] = zll-stub-library.a

  122 776 bytes of readonly  code memory
   25 446 bytes of readonly  data memory
   19 535 bytes of readwrite data memory

Errors: 15
Warnings: none
